ccopy_reg
_reconstructor
p0
(cDecisionTree
DecisionTree
p1
c__builtin__
object
p2
Ntp3
Rp4
(dp5
S'igr'
p6
S''
p7
sS'distinct_labels'
p8
(dp9
sS'full_labels'
p10
(lp11
sS'to_prune'
p12
I00
sS'examples'
p13
(lp14
(iMethods
Instance
p15
(dp16
S'_feature_vector'
p17
(iMethods
FeatureVector
p18
(dp19
S'feature_vec'
p20
(dp21
I0
F1.0
sI1
F1.0
sI2
F1.0
sI3
F1.0
sI4
F1.0
sI5
F2.0
ssbsS'_label'
p22
g0
(cMethods
ClassificationLabel
p23
g2
Ntp24
Rp25
(dp26
S'label_str'
p27
S'1'
p28
sbsba(iMethods
Instance
p29
(dp30
g17
(iMethods
FeatureVector
p31
(dp32
g20
(dp33
I0
F1.0
sI1
F1.0
sI2
F1.0
sI3
F1.0
sI4
F2.0
sI5
F1.0
ssbsg22
g0
(g23
g2
Ntp34
Rp35
(dp36
g27
g28
sbsba(iMethods
Instance
p37
(dp38
g17
(iMethods
FeatureVector
p39
(dp40
g20
(dp41
I0
F1.0
sI1
F1.0
sI2
F1.0
sI3
F1.0
sI4
F2.0
sI5
F2.0
ssbsg22
g0
(g23
g2
Ntp42
Rp43
(dp44
g27
g28
sbsba(iMethods
Instance
p45
(dp46
g17
(iMethods
FeatureVector
p47
(dp48
g20
(dp49
I0
F1.0
sI1
F1.0
sI2
F1.0
sI3
F1.0
sI4
F3.0
sI5
F1.0
ssbsg22
g0
(g23
g2
Ntp50
Rp51
(dp52
g27
S'0'
p53
sbsba(iMethods
Instance
p54
(dp55
g17
(iMethods
FeatureVector
p56
(dp57
g20
(dp58
I0
F1.0
sI1
F1.0
sI2
F1.0
sI3
F1.0
sI4
F4.0
sI5
F1.0
ssbsg22
g0
(g23
g2
Ntp59
Rp60
(dp61
g27
g53
sbsba(iMethods
Instance
p62
(dp63
g17
(iMethods
FeatureVector
p64
(dp65
g20
(dp66
I0
F1.0
sI1
F1.0
sI2
F1.0
sI3
F2.0
sI4
F1.0
sI5
F1.0
ssbsg22
g0
(g23
g2
Ntp67
Rp68
(dp69
g27
g28
sbsba(iMethods
Instance
p70
(dp71
g17
(iMethods
FeatureVector
p72
(dp73
g20
(dp74
I0
F1.0
sI1
F1.0
sI2
F1.0
sI3
F2.0
sI4
F2.0
sI5
F2.0
ssbsg22
g0
(g23
g2
Ntp75
Rp76
(dp77
g27
g28
sbsba(iMethods
Instance
p78
(dp79
g17
(iMethods
FeatureVector
p80
(dp81
g20
(dp82
I0
F1.0
sI1
F1.0
sI2
F1.0
sI3
F2.0
sI4
F4.0
sI5
F2.0
ssbsg22
g0
(g23
g2
Ntp83
Rp84
(dp85
g27
g53
sbsba(iMethods
Instance
p86
(dp87
g17
(iMethods
FeatureVector
p88
(dp89
g20
(dp90
I0
F1.0
sI1
F1.0
sI2
F2.0
sI3
F1.0
sI4
F2.0
sI5
F2.0
ssbsg22
g0
(g23
g2
Ntp91
Rp92
(dp93
g27
g28
sbsba(iMethods
Instance
p94
(dp95
g17
(iMethods
FeatureVector
p96
(dp97
g20
(dp98
I0
F1.0
sI1
F1.0
sI2
F2.0
sI3
F1.0
sI4
F4.0
sI5
F2.0
ssbsg22
g0
(g23
g2
Ntp99
Rp100
(dp101
g27
g53
sbsba(iMethods
Instance
p102
(dp103
g17
(iMethods
FeatureVector
p104
(dp105
g20
(dp106
I0
F1.0
sI1
F1.0
sI2
F2.0
sI3
F2.0
sI4
F2.0
sI5
F2.0
ssbsg22
g0
(g23
g2
Ntp107
Rp108
(dp109
g27
g28
sbsba(iMethods
Instance
p110
(dp111
g17
(iMethods
FeatureVector
p112
(dp113
g20
(dp114
I0
F1.0
sI1
F1.0
sI2
F2.0
sI3
F2.0
sI4
F4.0
sI5
F1.0
ssbsg22
g0
(g23
g2
Ntp115
Rp116
(dp117
g27
g53
sbsba(iMethods
Instance
p118
(dp119
g17
(iMethods
FeatureVector
p120
(dp121
g20
(dp122
I0
F1.0
sI1
F1.0
sI2
F2.0
sI3
F2.0
sI4
F4.0
sI5
F2.0
ssbsg22
g0
(g23
g2
Ntp123
Rp124
(dp125
g27
g53
sbsba(iMethods
Instance
p126
(dp127
g17
(iMethods
FeatureVector
p128
(dp129
g20
(dp130
I0
F1.0
sI1
F1.0
sI2
F2.0
sI3
F3.0
sI4
F1.0
sI5
F1.0
ssbsg22
g0
(g23
g2
Ntp131
Rp132
(dp133
g27
g28
sbsba(iMethods
Instance
p134
(dp135
g17
(iMethods
FeatureVector
p136
(dp137
g20
(dp138
I0
F1.0
sI1
F1.0
sI2
F2.0
sI3
F3.0
sI4
F1.0
sI5
F2.0
ssbsg22
g0
(g23
g2
Ntp139
Rp140
(dp141
g27
g28
sbsba(iMethods
Instance
p142
(dp143
g17
(iMethods
FeatureVector
p144
(dp145
g20
(dp146
I0
F1.0
sI1
F1.0
sI2
F2.0
sI3
F3.0
sI4
F3.0
sI5
F1.0
ssbsg22
g0
(g23
g2
Ntp147
Rp148
(dp149
g27
g28
sbsba(iMethods
Instance
p150
(dp151
g17
(iMethods
FeatureVector
p152
(dp153
g20
(dp154
I0
F1.0
sI1
F1.0
sI2
F2.0
sI3
F3.0
sI4
F3.0
sI5
F2.0
ssbsg22
g0
(g23
g2
Ntp155
Rp156
(dp157
g27
g28
sbsba(iMethods
Instance
p158
(dp159
g17
(iMethods
FeatureVector
p160
(dp161
g20
(dp162
I0
F1.0
sI1
F2.0
sI2
F1.0
sI3
F1.0
sI4
F3.0
sI5
F1.0
ssbsg22
g0
(g23
g2
Ntp163
Rp164
(dp165
g27
g28
sbsba(iMethods
Instance
p166
(dp167
g17
(iMethods
FeatureVector
p168
(dp169
g20
(dp170
I0
F1.0
sI1
F2.0
sI2
F1.0
sI3
F2.0
sI4
F2.0
sI5
F1.0
ssbsg22
g0
(g23
g2
Ntp171
Rp172
(dp173
g27
g28
sbsba(iMethods
Instance
p174
(dp175
g17
(iMethods
FeatureVector
p176
(dp177
g20
(dp178
I0
F1.0
sI1
F2.0
sI2
F1.0
sI3
F2.0
sI4
F2.0
sI5
F2.0
ssbsg22
g0
(g23
g2
Ntp179
Rp180
(dp181
g27
g28
sbsba(iMethods
Instance
p182
(dp183
g17
(iMethods
FeatureVector
p184
(dp185
g20
(dp186
I0
F1.0
sI1
F2.0
sI2
F1.0
sI3
F2.0
sI4
F3.0
sI5
F1.0
ssbsg22
g0
(g23
g2
Ntp187
Rp188
(dp189
g27
g53
sbsba(iMethods
Instance
p190
(dp191
g17
(iMethods
FeatureVector
p192
(dp193
g20
(dp194
I0
F1.0
sI1
F2.0
sI2
F1.0
sI3
F3.0
sI4
F1.0
sI5
F1.0
ssbsg22
g0
(g23
g2
Ntp195
Rp196
(dp197
g27
g28
sbsba(iMethods
Instance
p198
(dp199
g17
(iMethods
FeatureVector
p200
(dp201
g20
(dp202
I0
F1.0
sI1
F2.0
sI2
F1.0
sI3
F3.0
sI4
F1.0
sI5
F2.0
ssbsg22
g0
(g23
g2
Ntp203
Rp204
(dp205
g27
g28
sbsba(iMethods
Instance
p206
(dp207
g17
(iMethods
FeatureVector
p208
(dp209
g20
(dp210
I0
F1.0
sI1
F2.0
sI2
F1.0
sI3
F3.0
sI4
F2.0
sI5
F1.0
ssbsg22
g0
(g23
g2
Ntp211
Rp212
(dp213
g27
g28
sbsba(iMethods
Instance
p214
(dp215
g17
(iMethods
FeatureVector
p216
(dp217
g20
(dp218
I0
F1.0
sI1
F2.0
sI2
F1.0
sI3
F3.0
sI4
F2.0
sI5
F2.0
ssbsg22
g0
(g23
g2
Ntp219
Rp220
(dp221
g27
g28
sbsba(iMethods
Instance
p222
(dp223
g17
(iMethods
FeatureVector
p224
(dp225
g20
(dp226
I0
F1.0
sI1
F2.0
sI2
F1.0
sI3
F3.0
sI4
F3.0
sI5
F2.0
ssbsg22
g0
(g23
g2
Ntp227
Rp228
(dp229
g27
g28
sbsba(iMethods
Instance
p230
(dp231
g17
(iMethods
FeatureVector
p232
(dp233
g20
(dp234
I0
F1.0
sI1
F2.0
sI2
F1.0
sI3
F3.0
sI4
F4.0
sI5
F1.0
ssbsg22
g0
(g23
g2
Ntp235
Rp236
(dp237
g27
g53
sbsba(iMethods
Instance
p238
(dp239
g17
(iMethods
FeatureVector
p240
(dp241
g20
(dp242
I0
F1.0
sI1
F2.0
sI2
F2.0
sI3
F1.0
sI4
F3.0
sI5
F1.0
ssbsg22
g0
(g23
g2
Ntp243
Rp244
(dp245
g27
g28
sbsba(iMethods
Instance
p246
(dp247
g17
(iMethods
FeatureVector
p248
(dp249
g20
(dp250
I0
F1.0
sI1
F2.0
sI2
F2.0
sI3
F1.0
sI4
F4.0
sI5
F2.0
ssbsg22
g0
(g23
g2
Ntp251
Rp252
(dp253
g27
g53
sbsba(iMethods
Instance
p254
(dp255
g17
(iMethods
FeatureVector
p256
(dp257
g20
(dp258
I0
F1.0
sI1
F2.0
sI2
F2.0
sI3
F2.0
sI4
F1.0
sI5
F1.0
ssbsg22
g0
(g23
g2
Ntp259
Rp260
(dp261
g27
g28
sbsba(iMethods
Instance
p262
(dp263
g17
(iMethods
FeatureVector
p264
(dp265
g20
(dp266
I0
F1.0
sI1
F2.0
sI2
F2.0
sI3
F2.0
sI4
F2.0
sI5
F1.0
ssbsg22
g0
(g23
g2
Ntp267
Rp268
(dp269
g27
g28
sbsba(iMethods
Instance
p270
(dp271
g17
(iMethods
FeatureVector
p272
(dp273
g20
(dp274
I0
F1.0
sI1
F2.0
sI2
F2.0
sI3
F2.0
sI4
F2.0
sI5
F2.0
ssbsg22
g0
(g23
g2
Ntp275
Rp276
(dp277
g27
g28
sbsba(iMethods
Instance
p278
(dp279
g17
(iMethods
FeatureVector
p280
(dp281
g20
(dp282
I0
F1.0
sI1
F2.0
sI2
F2.0
sI3
F3.0
sI4
F1.0
sI5
F1.0
ssbsg22
g0
(g23
g2
Ntp283
Rp284
(dp285
g27
g28
sbsba(iMethods
Instance
p286
(dp287
g17
(iMethods
FeatureVector
p288
(dp289
g20
(dp290
I0
F1.0
sI1
F2.0
sI2
F2.0
sI3
F3.0
sI4
F2.0
sI5
F1.0
ssbsg22
g0
(g23
g2
Ntp291
Rp292
(dp293
g27
g28
sbsba(iMethods
Instance
p294
(dp295
g17
(iMethods
FeatureVector
p296
(dp297
g20
(dp298
I0
F1.0
sI1
F2.0
sI2
F2.0
sI3
F3.0
sI4
F2.0
sI5
F2.0
ssbsg22
g0
(g23
g2
Ntp299
Rp300
(dp301
g27
g28
sbsba(iMethods
Instance
p302
(dp303
g17
(iMethods
FeatureVector
p304
(dp305
g20
(dp306
I0
F1.0
sI1
F3.0
sI2
F1.0
sI3
F1.0
sI4
F2.0
sI5
F1.0
ssbsg22
g0
(g23
g2
Ntp307
Rp308
(dp309
g27
g53
sbsba(iMethods
Instance
p310
(dp311
g17
(iMethods
FeatureVector
p312
(dp313
g20
(dp314
I0
F1.0
sI1
F3.0
sI2
F1.0
sI3
F1.0
sI4
F4.0
sI5
F1.0
ssbsg22
g0
(g23
g2
Ntp315
Rp316
(dp317
g27
g53
sbsba(iMethods
Instance
p318
(dp319
g17
(iMethods
FeatureVector
p320
(dp321
g20
(dp322
I0
F1.0
sI1
F3.0
sI2
F1.0
sI3
F2.0
sI4
F3.0
sI5
F2.0
ssbsg22
g0
(g23
g2
Ntp323
Rp324
(dp325
g27
g53
sbsba(iMethods
Instance
p326
(dp327
g17
(iMethods
FeatureVector
p328
(dp329
g20
(dp330
I0
F1.0
sI1
F3.0
sI2
F1.0
sI3
F2.0
sI4
F4.0
sI5
F1.0
ssbsg22
g0
(g23
g2
Ntp331
Rp332
(dp333
g27
g53
sbsba(iMethods
Instance
p334
(dp335
g17
(iMethods
FeatureVector
p336
(dp337
g20
(dp338
I0
F1.0
sI1
F3.0
sI2
F1.0
sI3
F3.0
sI4
F1.0
sI5
F1.0
ssbsg22
g0
(g23
g2
Ntp339
Rp340
(dp341
g27
g53
sbsba(iMethods
Instance
p342
(dp343
g17
(iMethods
FeatureVector
p344
(dp345
g20
(dp346
I0
F1.0
sI1
F3.0
sI2
F1.0
sI3
F3.0
sI4
F3.0
sI5
F1.0
ssbsg22
g0
(g23
g2
Ntp347
Rp348
(dp349
g27
g53
sbsba(iMethods
Instance
p350
(dp351
g17
(iMethods
FeatureVector
p352
(dp353
g20
(dp354
I0
F1.0
sI1
F3.0
sI2
F2.0
sI3
F1.0
sI4
F1.0
sI5
F1.0
ssbsg22
g0
(g23
g2
Ntp355
Rp356
(dp357
g27
g53
sbsba(iMethods
Instance
p358
(dp359
g17
(iMethods
FeatureVector
p360
(dp361
g20
(dp362
I0
F1.0
sI1
F3.0
sI2
F2.0
sI3
F1.0
sI4
F1.0
sI5
F2.0
ssbsg22
g0
(g23
g2
Ntp363
Rp364
(dp365
g27
g53
sbsba(iMethods
Instance
p366
(dp367
g17
(iMethods
FeatureVector
p368
(dp369
g20
(dp370
I0
F1.0
sI1
F3.0
sI2
F2.0
sI3
F1.0
sI4
F2.0
sI5
F1.0
ssbsg22
g0
(g23
g2
Ntp371
Rp372
(dp373
g27
g53
sbsba(iMethods
Instance
p374
(dp375
g17
(iMethods
FeatureVector
p376
(dp377
g20
(dp378
I0
F1.0
sI1
F3.0
sI2
F2.0
sI3
F1.0
sI4
F4.0
sI5
F2.0
ssbsg22
g0
(g23
g2
Ntp379
Rp380
(dp381
g27
g53
sbsba(iMethods
Instance
p382
(dp383
g17
(iMethods
FeatureVector
p384
(dp385
g20
(dp386
I0
F1.0
sI1
F3.0
sI2
F2.0
sI3
F2.0
sI4
F3.0
sI5
F2.0
ssbsg22
g0
(g23
g2
Ntp387
Rp388
(dp389
g27
g53
sbsba(iMethods
Instance
p390
(dp391
g17
(iMethods
FeatureVector
p392
(dp393
g20
(dp394
I0
F1.0
sI1
F3.0
sI2
F2.0
sI3
F2.0
sI4
F4.0
sI5
F2.0
ssbsg22
g0
(g23
g2
Ntp395
Rp396
(dp397
g27
g53
sbsba(iMethods
Instance
p398
(dp399
g17
(iMethods
FeatureVector
p400
(dp401
g20
(dp402
I0
F1.0
sI1
F3.0
sI2
F2.0
sI3
F3.0
sI4
F4.0
sI5
F1.0
ssbsg22
g0
(g23
g2
Ntp403
Rp404
(dp405
g27
g53
sbsba(iMethods
Instance
p406
(dp407
g17
(iMethods
FeatureVector
p408
(dp409
g20
(dp410
I0
F2.0
sI1
F1.0
sI2
F1.0
sI3
F1.0
sI4
F1.0
sI5
F1.0
ssbsg22
g0
(g23
g2
Ntp411
Rp412
(dp413
g27
g28
sbsba(iMethods
Instance
p414
(dp415
g17
(iMethods
FeatureVector
p416
(dp417
g20
(dp418
I0
F2.0
sI1
F1.0
sI2
F1.0
sI3
F1.0
sI4
F1.0
sI5
F2.0
ssbsg22
g0
(g23
g2
Ntp419
Rp420
(dp421
g27
g28
sbsba(iMethods
Instance
p422
(dp423
g17
(iMethods
FeatureVector
p424
(dp425
g20
(dp426
I0
F2.0
sI1
F1.0
sI2
F1.0
sI3
F1.0
sI4
F4.0
sI5
F1.0
ssbsg22
g0
(g23
g2
Ntp427
Rp428
(dp429
g27
g53
sbsba(iMethods
Instance
p430
(dp431
g17
(iMethods
FeatureVector
p432
(dp433
g20
(dp434
I0
F2.0
sI1
F1.0
sI2
F1.0
sI3
F1.0
sI4
F4.0
sI5
F2.0
ssbsg22
g0
(g23
g2
Ntp435
Rp436
(dp437
g27
g53
sbsba(iMethods
Instance
p438
(dp439
g17
(iMethods
FeatureVector
p440
(dp441
g20
(dp442
I0
F2.0
sI1
F1.0
sI2
F1.0
sI3
F2.0
sI4
F1.0
sI5
F1.0
ssbsg22
g0
(g23
g2
Ntp443
Rp444
(dp445
g27
g28
sbsba(iMethods
Instance
p446
(dp447
g17
(iMethods
FeatureVector
p448
(dp449
g20
(dp450
I0
F2.0
sI1
F1.0
sI2
F1.0
sI3
F2.0
sI4
F1.0
sI5
F2.0
ssbsg22
g0
(g23
g2
Ntp451
Rp452
(dp453
g27
g28
sbsba(iMethods
Instance
p454
(dp455
g17
(iMethods
FeatureVector
p456
(dp457
g20
(dp458
I0
F2.0
sI1
F1.0
sI2
F1.0
sI3
F3.0
sI4
F2.0
sI5
F2.0
ssbsg22
g0
(g23
g2
Ntp459
Rp460
(dp461
g27
g28
sbsba(iMethods
Instance
p462
(dp463
g17
(iMethods
FeatureVector
p464
(dp465
g20
(dp466
I0
F2.0
sI1
F1.0
sI2
F1.0
sI3
F3.0
sI4
F3.0
sI5
F2.0
ssbsg22
g0
(g23
g2
Ntp467
Rp468
(dp469
g27
g28
sbsba(iMethods
Instance
p470
(dp471
g17
(iMethods
FeatureVector
p472
(dp473
g20
(dp474
I0
F2.0
sI1
F1.0
sI2
F1.0
sI3
F3.0
sI4
F4.0
sI5
F1.0
ssbsg22
g0
(g23
g2
Ntp475
Rp476
(dp477
g27
g53
sbsba(iMethods
Instance
p478
(dp479
g17
(iMethods
FeatureVector
p480
(dp481
g20
(dp482
I0
F2.0
sI1
F1.0
sI2
F2.0
sI3
F1.0
sI4
F2.0
sI5
F2.0
ssbsg22
g0
(g23
g2
Ntp483
Rp484
(dp485
g27
g28
sbsba(iMethods
Instance
p486
(dp487
g17
(iMethods
FeatureVector
p488
(dp489
g20
(dp490
I0
F2.0
sI1
F1.0
sI2
F2.0
sI3
F2.0
sI4
F4.0
sI5
F1.0
ssbsg22
g0
(g23
g2
Ntp491
Rp492
(dp493
g27
g53
sbsba(iMethods
Instance
p494
(dp495
g17
(iMethods
FeatureVector
p496
(dp497
g20
(dp498
I0
F2.0
sI1
F1.0
sI2
F2.0
sI3
F3.0
sI4
F1.0
sI5
F2.0
ssbsg22
g0
(g23
g2
Ntp499
Rp500
(dp501
g27
g28
sbsba(iMethods
Instance
p502
(dp503
g17
(iMethods
FeatureVector
p504
(dp505
g20
(dp506
I0
F2.0
sI1
F2.0
sI2
F1.0
sI3
F1.0
sI4
F3.0
sI5
F2.0
ssbsg22
g0
(g23
g2
Ntp507
Rp508
(dp509
g27
g28
sbsba(iMethods
Instance
p510
(dp511
g17
(iMethods
FeatureVector
p512
(dp513
g20
(dp514
I0
F2.0
sI1
F2.0
sI2
F1.0
sI3
F1.0
sI4
F4.0
sI5
F2.0
ssbsg22
g0
(g23
g2
Ntp515
Rp516
(dp517
g27
g53
sbsba(iMethods
Instance
p518
(dp519
g17
(iMethods
FeatureVector
p520
(dp521
g20
(dp522
I0
F2.0
sI1
F2.0
sI2
F1.0
sI3
F2.0
sI4
F1.0
sI5
F2.0
ssbsg22
g0
(g23
g2
Ntp523
Rp524
(dp525
g27
g28
sbsba(iMethods
Instance
p526
(dp527
g17
(iMethods
FeatureVector
p528
(dp529
g20
(dp530
I0
F2.0
sI1
F2.0
sI2
F1.0
sI3
F2.0
sI4
F2.0
sI5
F1.0
ssbsg22
g0
(g23
g2
Ntp531
Rp532
(dp533
g27
g53
sbsba(iMethods
Instance
p534
(dp535
g17
(iMethods
FeatureVector
p536
(dp537
g20
(dp538
I0
F2.0
sI1
F2.0
sI2
F1.0
sI3
F3.0
sI4
F1.0
sI5
F1.0
ssbsg22
g0
(g23
g2
Ntp539
Rp540
(dp541
g27
g28
sbsba(iMethods
Instance
p542
(dp543
g17
(iMethods
FeatureVector
p544
(dp545
g20
(dp546
I0
F2.0
sI1
F2.0
sI2
F1.0
sI3
F3.0
sI4
F2.0
sI5
F2.0
ssbsg22
g0
(g23
g2
Ntp547
Rp548
(dp549
g27
g28
sbsba(iMethods
Instance
p550
(dp551
g17
(iMethods
FeatureVector
p552
(dp553
g20
(dp554
I0
F2.0
sI1
F2.0
sI2
F1.0
sI3
F3.0
sI4
F3.0
sI5
F1.0
ssbsg22
g0
(g23
g2
Ntp555
Rp556
(dp557
g27
g53
sbsba(iMethods
Instance
p558
(dp559
g17
(iMethods
FeatureVector
p560
(dp561
g20
(dp562
I0
F2.0
sI1
F2.0
sI2
F1.0
sI3
F3.0
sI4
F3.0
sI5
F2.0
ssbsg22
g0
(g23
g2
Ntp563
Rp564
(dp565
g27
g53
sbsba(iMethods
Instance
p566
(dp567
g17
(iMethods
FeatureVector
p568
(dp569
g20
(dp570
I0
F2.0
sI1
F2.0
sI2
F1.0
sI3
F3.0
sI4
F4.0
sI5
F2.0
ssbsg22
g0
(g23
g2
Ntp571
Rp572
(dp573
g27
g53
sbsba(iMethods
Instance
p574
(dp575
g17
(iMethods
FeatureVector
p576
(dp577
g20
(dp578
I0
F2.0
sI1
F2.0
sI2
F2.0
sI3
F1.0
sI4
F2.0
sI5
F2.0
ssbsg22
g0
(g23
g2
Ntp579
Rp580
(dp581
g27
g28
sbsba(iMethods
Instance
p582
(dp583
g17
(iMethods
FeatureVector
p584
(dp585
g20
(dp586
I0
F2.0
sI1
F2.0
sI2
F2.0
sI3
F2.0
sI4
F1.0
sI5
F2.0
ssbsg22
g0
(g23
g2
Ntp587
Rp588
(dp589
g27
g28
sbsba(iMethods
Instance
p590
(dp591
g17
(iMethods
FeatureVector
p592
(dp593
g20
(dp594
I0
F2.0
sI1
F2.0
sI2
F2.0
sI3
F2.0
sI4
F3.0
sI5
F1.0
ssbsg22
g0
(g23
g2
Ntp595
Rp596
(dp597
g27
g28
sbsba(iMethods
Instance
p598
(dp599
g17
(iMethods
FeatureVector
p600
(dp601
g20
(dp602
I0
F2.0
sI1
F2.0
sI2
F2.0
sI3
F2.0
sI4
F3.0
sI5
F2.0
ssbsg22
g0
(g23
g2
Ntp603
Rp604
(dp605
g27
g28
sbsba(iMethods
Instance
p606
(dp607
g17
(iMethods
FeatureVector
p608
(dp609
g20
(dp610
I0
F2.0
sI1
F2.0
sI2
F2.0
sI3
F3.0
sI4
F4.0
sI5
F1.0
ssbsg22
g0
(g23
g2
Ntp611
Rp612
(dp613
g27
g53
sbsba(iMethods
Instance
p614
(dp615
g17
(iMethods
FeatureVector
p616
(dp617
g20
(dp618
I0
F2.0
sI1
F3.0
sI2
F1.0
sI3
F1.0
sI4
F3.0
sI5
F1.0
ssbsg22
g0
(g23
g2
Ntp619
Rp620
(dp621
g27
g28
sbsba(iMethods
Instance
p622
(dp623
g17
(iMethods
FeatureVector
p624
(dp625
g20
(dp626
I0
F2.0
sI1
F3.0
sI2
F1.0
sI3
F2.0
sI4
F1.0
sI5
F1.0
ssbsg22
g0
(g23
g2
Ntp627
Rp628
(dp629
g27
g53
sbsba(iMethods
Instance
p630
(dp631
g17
(iMethods
FeatureVector
p632
(dp633
g20
(dp634
I0
F2.0
sI1
F3.0
sI2
F1.0
sI3
F2.0
sI4
F2.0
sI5
F1.0
ssbsg22
g0
(g23
g2
Ntp635
Rp636
(dp637
g27
g53
sbsba(iMethods
Instance
p638
(dp639
g17
(iMethods
FeatureVector
p640
(dp641
g20
(dp642
I0
F2.0
sI1
F3.0
sI2
F1.0
sI3
F2.0
sI4
F2.0
sI5
F2.0
ssbsg22
g0
(g23
g2
Ntp643
Rp644
(dp645
g27
g53
sbsba(iMethods
Instance
p646
(dp647
g17
(iMethods
FeatureVector
p648
(dp649
g20
(dp650
I0
F2.0
sI1
F3.0
sI2
F1.0
sI3
F2.0
sI4
F3.0
sI5
F2.0
ssbsg22
g0
(g23
g2
Ntp651
Rp652
(dp653
g27
g53
sbsba(iMethods
Instance
p654
(dp655
g17
(iMethods
FeatureVector
p656
(dp657
g20
(dp658
I0
F2.0
sI1
F3.0
sI2
F1.0
sI3
F3.0
sI4
F3.0
sI5
F1.0
ssbsg22
g0
(g23
g2
Ntp659
Rp660
(dp661
g27
g53
sbsba(iMethods
Instance
p662
(dp663
g17
(iMethods
FeatureVector
p664
(dp665
g20
(dp666
I0
F2.0
sI1
F3.0
sI2
F2.0
sI3
F1.0
sI4
F1.0
sI5
F2.0
ssbsg22
g0
(g23
g2
Ntp667
Rp668
(dp669
g27
g53
sbsba(iMethods
Instance
p670
(dp671
g17
(iMethods
FeatureVector
p672
(dp673
g20
(dp674
I0
F2.0
sI1
F3.0
sI2
F2.0
sI3
F1.0
sI4
F2.0
sI5
F2.0
ssbsg22
g0
(g23
g2
Ntp675
Rp676
(dp677
g27
g53
sbsba(iMethods
Instance
p678
(dp679
g17
(iMethods
FeatureVector
p680
(dp681
g20
(dp682
I0
F2.0
sI1
F3.0
sI2
F2.0
sI3
F1.0
sI4
F4.0
sI5
F1.0
ssbsg22
g0
(g23
g2
Ntp683
Rp684
(dp685
g27
g53
sbsba(iMethods
Instance
p686
(dp687
g17
(iMethods
FeatureVector
p688
(dp689
g20
(dp690
I0
F2.0
sI1
F3.0
sI2
F2.0
sI3
F2.0
sI4
F3.0
sI5
F1.0
ssbsg22
g0
(g23
g2
Ntp691
Rp692
(dp693
g27
g53
sbsba(iMethods
Instance
p694
(dp695
g17
(iMethods
FeatureVector
p696
(dp697
g20
(dp698
I0
F2.0
sI1
F3.0
sI2
F2.0
sI3
F2.0
sI4
F4.0
sI5
F2.0
ssbsg22
g0
(g23
g2
Ntp699
Rp700
(dp701
g27
g53
sbsba(iMethods
Instance
p702
(dp703
g17
(iMethods
FeatureVector
p704
(dp705
g20
(dp706
I0
F2.0
sI1
F3.0
sI2
F2.0
sI3
F3.0
sI4
F1.0
sI5
F1.0
ssbsg22
g0
(g23
g2
Ntp707
Rp708
(dp709
g27
g53
sbsba(iMethods
Instance
p710
(dp711
g17
(iMethods
FeatureVector
p712
(dp713
g20
(dp714
I0
F2.0
sI1
F3.0
sI2
F2.0
sI3
F3.0
sI4
F2.0
sI5
F1.0
ssbsg22
g0
(g23
g2
Ntp715
Rp716
(dp717
g27
g53
sbsba(iMethods
Instance
p718
(dp719
g17
(iMethods
FeatureVector
p720
(dp721
g20
(dp722
I0
F2.0
sI1
F3.0
sI2
F2.0
sI3
F3.0
sI4
F4.0
sI5
F2.0
ssbsg22
g0
(g23
g2
Ntp723
Rp724
(dp725
g27
g53
sbsba(iMethods
Instance
p726
(dp727
g17
(iMethods
FeatureVector
p728
(dp729
g20
(dp730
I0
F3.0
sI1
F1.0
sI2
F1.0
sI3
F1.0
sI4
F1.0
sI5
F1.0
ssbsg22
g0
(g23
g2
Ntp731
Rp732
(dp733
g27
g28
sbsba(iMethods
Instance
p734
(dp735
g17
(iMethods
FeatureVector
p736
(dp737
g20
(dp738
I0
F3.0
sI1
F1.0
sI2
F1.0
sI3
F1.0
sI4
F2.0
sI5
F1.0
ssbsg22
g0
(g23
g2
Ntp739
Rp740
(dp741
g27
g28
sbsba(iMethods
Instance
p742
(dp743
g17
(iMethods
FeatureVector
p744
(dp745
g20
(dp746
I0
F3.0
sI1
F1.0
sI2
F1.0
sI3
F1.0
sI4
F3.0
sI5
F1.0
ssbsg22
g0
(g23
g2
Ntp747
Rp748
(dp749
g27
g28
sbsba(iMethods
Instance
p750
(dp751
g17
(iMethods
FeatureVector
p752
(dp753
g20
(dp754
I0
F3.0
sI1
F1.0
sI2
F1.0
sI3
F2.0
sI4
F4.0
sI5
F2.0
ssbsg22
g0
(g23
g2
Ntp755
Rp756
(dp757
g27
g53
sbsba(iMethods
Instance
p758
(dp759
g17
(iMethods
FeatureVector
p760
(dp761
g20
(dp762
I0
F3.0
sI1
F1.0
sI2
F1.0
sI3
F3.0
sI4
F1.0
sI5
F2.0
ssbsg22
g0
(g23
g2
Ntp763
Rp764
(dp765
g27
g28
sbsba(iMethods
Instance
p766
(dp767
g17
(iMethods
FeatureVector
p768
(dp769
g20
(dp770
I0
F3.0
sI1
F1.0
sI2
F1.0
sI3
F3.0
sI4
F4.0
sI5
F2.0
ssbsg22
g0
(g23
g2
Ntp771
Rp772
(dp773
g27
g53
sbsba(iMethods
Instance
p774
(dp775
g17
(iMethods
FeatureVector
p776
(dp777
g20
(dp778
I0
F3.0
sI1
F1.0
sI2
F2.0
sI3
F1.0
sI4
F2.0
sI5
F1.0
ssbsg22
g0
(g23
g2
Ntp779
Rp780
(dp781
g27
g28
sbsba(iMethods
Instance
p782
(dp783
g17
(iMethods
FeatureVector
p784
(dp785
g20
(dp786
I0
F3.0
sI1
F1.0
sI2
F2.0
sI3
F2.0
sI4
F3.0
sI5
F2.0
ssbsg22
g0
(g23
g2
Ntp787
Rp788
(dp789
g27
g28
sbsba(iMethods
Instance
p790
(dp791
g17
(iMethods
FeatureVector
p792
(dp793
g20
(dp794
I0
F3.0
sI1
F1.0
sI2
F2.0
sI3
F2.0
sI4
F4.0
sI5
F2.0
ssbsg22
g0
(g23
g2
Ntp795
Rp796
(dp797
g27
g53
sbsba(iMethods
Instance
p798
(dp799
g17
(iMethods
FeatureVector
p800
(dp801
g20
(dp802
I0
F3.0
sI1
F1.0
sI2
F2.0
sI3
F3.0
sI4
F1.0
sI5
F1.0
ssbsg22
g0
(g23
g2
Ntp803
Rp804
(dp805
g27
g28
sbsba(iMethods
Instance
p806
(dp807
g17
(iMethods
FeatureVector
p808
(dp809
g20
(dp810
I0
F3.0
sI1
F2.0
sI2
F1.0
sI3
F1.0
sI4
F2.0
sI5
F2.0
ssbsg22
g0
(g23
g2
Ntp811
Rp812
(dp813
g27
g28
sbsba(iMethods
Instance
p814
(dp815
g17
(iMethods
FeatureVector
p816
(dp817
g20
(dp818
I0
F3.0
sI1
F2.0
sI2
F1.0
sI3
F1.0
sI4
F4.0
sI5
F1.0
ssbsg22
g0
(g23
g2
Ntp819
Rp820
(dp821
g27
g53
sbsba(iMethods
Instance
p822
(dp823
g17
(iMethods
FeatureVector
p824
(dp825
g20
(dp826
I0
F3.0
sI1
F2.0
sI2
F1.0
sI3
F2.0
sI4
F3.0
sI5
F1.0
ssbsg22
g0
(g23
g2
Ntp827
Rp828
(dp829
g27
g28
sbsba(iMethods
Instance
p830
(dp831
g17
(iMethods
FeatureVector
p832
(dp833
g20
(dp834
I0
F3.0
sI1
F2.0
sI2
F1.0
sI3
F3.0
sI4
F1.0
sI5
F2.0
ssbsg22
g0
(g23
g2
Ntp835
Rp836
(dp837
g27
g28
sbsba(iMethods
Instance
p838
(dp839
g17
(iMethods
FeatureVector
p840
(dp841
g20
(dp842
I0
F3.0
sI1
F2.0
sI2
F2.0
sI3
F1.0
sI4
F2.0
sI5
F2.0
ssbsg22
g0
(g23
g2
Ntp843
Rp844
(dp845
g27
g28
sbsba(iMethods
Instance
p846
(dp847
g17
(iMethods
FeatureVector
p848
(dp849
g20
(dp850
I0
F3.0
sI1
F2.0
sI2
F2.0
sI3
F1.0
sI4
F3.0
sI5
F2.0
ssbsg22
g0
(g23
g2
Ntp851
Rp852
(dp853
g27
g28
sbsba(iMethods
Instance
p854
(dp855
g17
(iMethods
FeatureVector
p856
(dp857
g20
(dp858
I0
F3.0
sI1
F2.0
sI2
F2.0
sI3
F2.0
sI4
F1.0
sI5
F2.0
ssbsg22
g0
(g23
g2
Ntp859
Rp860
(dp861
g27
g28
sbsba(iMethods
Instance
p862
(dp863
g17
(iMethods
FeatureVector
p864
(dp865
g20
(dp866
I0
F3.0
sI1
F2.0
sI2
F2.0
sI3
F3.0
sI4
F1.0
sI5
F1.0
ssbsg22
g0
(g23
g2
Ntp867
Rp868
(dp869
g27
g28
sbsba(iMethods
Instance
p870
(dp871
g17
(iMethods
FeatureVector
p872
(dp873
g20
(dp874
I0
F3.0
sI1
F2.0
sI2
F2.0
sI3
F3.0
sI4
F3.0
sI5
F2.0
ssbsg22
g0
(g23
g2
Ntp875
Rp876
(dp877
g27
g28
sbsba(iMethods
Instance
p878
(dp879
g17
(iMethods
FeatureVector
p880
(dp881
g20
(dp882
I0
F3.0
sI1
F2.0
sI2
F2.0
sI3
F3.0
sI4
F4.0
sI5
F1.0
ssbsg22
g0
(g23
g2
Ntp883
Rp884
(dp885
g27
g53
sbsba(iMethods
Instance
p886
(dp887
g17
(iMethods
FeatureVector
p888
(dp889
g20
(dp890
I0
F3.0
sI1
F3.0
sI2
F1.0
sI3
F1.0
sI4
F3.0
sI5
F2.0
ssbsg22
g0
(g23
g2
Ntp891
Rp892
(dp893
g27
g28
sbsba(iMethods
Instance
p894
(dp895
g17
(iMethods
FeatureVector
p896
(dp897
g20
(dp898
I0
F3.0
sI1
F3.0
sI2
F1.0
sI3
F1.0
sI4
F4.0
sI5
F1.0
ssbsg22
g0
(g23
g2
Ntp899
Rp900
(dp901
g27
g28
sbsba(iMethods
Instance
p902
(dp903
g17
(iMethods
FeatureVector
p904
(dp905
g20
(dp906
I0
F3.0
sI1
F3.0
sI2
F1.0
sI3
F2.0
sI4
F4.0
sI5
F2.0
ssbsg22
g0
(g23
g2
Ntp907
Rp908
(dp909
g27
g53
sbsba(iMethods
Instance
p910
(dp911
g17
(iMethods
FeatureVector
p912
(dp913
g20
(dp914
I0
F3.0
sI1
F3.0
sI2
F1.0
sI3
F3.0
sI4
F1.0
sI5
F1.0
ssbsg22
g0
(g23
g2
Ntp915
Rp916
(dp917
g27
g53
sbsba(iMethods
Instance
p918
(dp919
g17
(iMethods
FeatureVector
p920
(dp921
g20
(dp922
I0
F3.0
sI1
F3.0
sI2
F1.0
sI3
F3.0
sI4
F2.0
sI5
F1.0
ssbsg22
g0
(g23
g2
Ntp923
Rp924
(dp925
g27
g53
sbsba(iMethods
Instance
p926
(dp927
g17
(iMethods
FeatureVector
p928
(dp929
g20
(dp930
I0
F3.0
sI1
F3.0
sI2
F1.0
sI3
F3.0
sI4
F2.0
sI5
F2.0
ssbsg22
g0
(g23
g2
Ntp931
Rp932
(dp933
g27
g53
sbsba(iMethods
Instance
p934
(dp935
g17
(iMethods
FeatureVector
p936
(dp937
g20
(dp938
I0
F3.0
sI1
F3.0
sI2
F1.0
sI3
F3.0
sI4
F4.0
sI5
F1.0
ssbsg22
g0
(g23
g2
Ntp939
Rp940
(dp941
g27
g53
sbsba(iMethods
Instance
p942
(dp943
g17
(iMethods
FeatureVector
p944
(dp945
g20
(dp946
I0
F3.0
sI1
F3.0
sI2
F2.0
sI3
F1.0
sI4
F1.0
sI5
F1.0
ssbsg22
g0
(g23
g2
Ntp947
Rp948
(dp949
g27
g53
sbsba(iMethods
Instance
p950
(dp951
g17
(iMethods
FeatureVector
p952
(dp953
g20
(dp954
I0
F3.0
sI1
F3.0
sI2
F2.0
sI3
F1.0
sI4
F1.0
sI5
F2.0
ssbsg22
g0
(g23
g2
Ntp955
Rp956
(dp957
g27
g53
sbsba(iMethods
Instance
p958
(dp959
g17
(iMethods
FeatureVector
p960
(dp961
g20
(dp962
I0
F3.0
sI1
F3.0
sI2
F2.0
sI3
F2.0
sI4
F2.0
sI5
F2.0
ssbsg22
g0
(g23
g2
Ntp963
Rp964
(dp965
g27
g53
sbsba(iMethods
Instance
p966
(dp967
g17
(iMethods
FeatureVector
p968
(dp969
g20
(dp970
I0
F3.0
sI1
F3.0
sI2
F2.0
sI3
F2.0
sI4
F3.0
sI5
F2.0
ssbsg22
g0
(g23
g2
Ntp971
Rp972
(dp973
g27
g53
sbsba(iMethods
Instance
p974
(dp975
g17
(iMethods
FeatureVector
p976
(dp977
g20
(dp978
I0
F3.0
sI1
F3.0
sI2
F2.0
sI3
F3.0
sI4
F1.0
sI5
F1.0
ssbsg22
g0
(g23
g2
Ntp979
Rp980
(dp981
g27
g53
sbsba(iMethods
Instance
p982
(dp983
g17
(iMethods
FeatureVector
p984
(dp985
g20
(dp986
I0
F3.0
sI1
F3.0
sI2
F2.0
sI3
F3.0
sI4
F3.0
sI5
F2.0
ssbsg22
g0
(g23
g2
Ntp987
Rp988
(dp989
g27
g53
sbsba(iMethods
Instance
p990
(dp991
g17
(iMethods
FeatureVector
p992
(dp993
g20
(dp994
I0
F3.0
sI1
F3.0
sI2
F2.0
sI3
F3.0
sI4
F4.0
sI5
F2.0
ssbsg22
g0
(g23
g2
Ntp995
Rp996
(dp997
g27
g53
sbsbasS'root'
p998
(dp999
I1
(dp1000
F1.0
(dp1001
I4
(dp1002
F1.0
(dp1003
I0
(dp1004
F1.0
(dp1005
I5
(dp1006
F1.0
(dp1007
I3
(dp1008
F1.0
(dp1009
I2
(dp1010
F1.0
g28
sF2.0
g53
sssF2.0
g53
sF3.0
g28
sssF2.0
g28
sssF2.0
g53
sF3.0
g28
sssF2.0
g28
sF3.0
g28
sF4.0
g53
sssF2.0
g28
sF3.0
g53
sssb.