ccopy_reg
_reconstructor
p0
(cDecisionTree
DecisionTree
p1
c__builtin__
object
p2
Ntp3
Rp4
(dp5
S'full_labels'
p6
(lp7
sS'distinct_labels'
p8
(dp9
sS'root'
p10
(dp11
I4
(dp12
F1.0
cnumpy.core.multiarray
scalar
p13
(cnumpy
dtype
p14
(S'S1'
p15
I0
I1
tp16
Rp17
(I3
S'|'
p18
NNNI1
I1
I0
tp19
bS'1'
p20
tp21
Rp22
sF2.0
(dp23
I0
(dp24
F1.0
(dp25
I3
(dp26
F1.0
(dp27
I1
(dp28
F1.0
(dp29
I2
(dp30
F1.0
(dp31
I5
(dp32
F1.0
g20
sF2.0
S'0'
p33
sssF2.0
g33
sssF2.0
g20
sF3.0
g20
sssF2.0
g33
sF3.0
g33
sssF2.0
g20
sF3.0
g20
sssF3.0
g33
sF4.0
g33
sssS'examples'
p34
(lp35
(iMethods
Instance
p36
(dp37
S'_feature_vector'
p38
(iMethods
FeatureVector
p39
(dp40
S'feature_vec'
p41
(dp42
I0
F1.0
sI1
F1.0
sI2
F1.0
sI3
F1.0
sI4
F3.0
sI5
F1.0
ssbsS'_label'
p43
g0
(cMethods
ClassificationLabel
p44
g2
Ntp45
Rp46
(dp47
S'label_str'
p48
g20
sbsba(iMethods
Instance
p49
(dp50
g38
(iMethods
FeatureVector
p51
(dp52
g41
(dp53
I0
F1.0
sI1
F1.0
sI2
F1.0
sI3
F1.0
sI4
F3.0
sI5
F2.0
ssbsg43
g0
(g44
g2
Ntp54
Rp55
(dp56
g48
g20
sbsba(iMethods
Instance
p57
(dp58
g38
(iMethods
FeatureVector
p59
(dp60
g41
(dp61
I0
F1.0
sI1
F1.0
sI2
F1.0
sI3
F3.0
sI4
F2.0
sI5
F1.0
ssbsg43
g0
(g44
g2
Ntp62
Rp63
(dp64
g48
g20
sbsba(iMethods
Instance
p65
(dp66
g38
(iMethods
FeatureVector
p67
(dp68
g41
(dp69
I0
F1.0
sI1
F1.0
sI2
F1.0
sI3
F3.0
sI4
F3.0
sI5
F2.0
ssbsg43
g0
(g44
g2
Ntp70
Rp71
(dp72
g48
g20
sbsba(iMethods
Instance
p73
(dp74
g38
(iMethods
FeatureVector
p75
(dp76
g41
(dp77
I0
F1.0
sI1
F1.0
sI2
F2.0
sI3
F1.0
sI4
F2.0
sI5
F1.0
ssbsg43
g0
(g44
g2
Ntp78
Rp79
(dp80
g48
g20
sbsba(iMethods
Instance
p81
(dp82
g38
(iMethods
FeatureVector
p83
(dp84
g41
(dp85
I0
F1.0
sI1
F1.0
sI2
F2.0
sI3
F1.0
sI4
F2.0
sI5
F2.0
ssbsg43
g0
(g44
g2
Ntp86
Rp87
(dp88
g48
g20
sbsba(iMethods
Instance
p89
(dp90
g38
(iMethods
FeatureVector
p91
(dp92
g41
(dp93
I0
F1.0
sI1
F1.0
sI2
F2.0
sI3
F2.0
sI4
F3.0
sI5
F1.0
ssbsg43
g0
(g44
g2
Ntp94
Rp95
(dp96
g48
g20
sbsba(iMethods
Instance
p97
(dp98
g38
(iMethods
FeatureVector
p99
(dp100
g41
(dp101
I0
F1.0
sI1
F1.0
sI2
F2.0
sI3
F2.0
sI4
F4.0
sI5
F1.0
ssbsg43
g0
(g44
g2
Ntp102
Rp103
(dp104
g48
g20
sbsba(iMethods
Instance
p105
(dp106
g38
(iMethods
FeatureVector
p107
(dp108
g41
(dp109
I0
F1.0
sI1
F1.0
sI2
F2.0
sI3
F3.0
sI4
F1.0
sI5
F2.0
ssbsg43
g0
(g44
g2
Ntp110
Rp111
(dp112
g48
g20
sbsba(iMethods
Instance
p113
(dp114
g38
(iMethods
FeatureVector
p115
(dp116
g41
(dp117
I0
F1.0
sI1
F2.0
sI2
F1.0
sI3
F1.0
sI4
F1.0
sI5
F2.0
ssbsg43
g0
(g44
g2
Ntp118
Rp119
(dp120
g48
g20
sbsba(iMethods
Instance
p121
(dp122
g38
(iMethods
FeatureVector
p123
(dp124
g41
(dp125
I0
F1.0
sI1
F2.0
sI2
F1.0
sI3
F1.0
sI4
F2.0
sI5
F1.0
ssbsg43
g0
(g44
g2
Ntp126
Rp127
(dp128
g48
g33
sbsba(iMethods
Instance
p129
(dp130
g38
(iMethods
FeatureVector
p131
(dp132
g41
(dp133
I0
F1.0
sI1
F2.0
sI2
F1.0
sI3
F1.0
sI4
F3.0
sI5
F1.0
ssbsg43
g0
(g44
g2
Ntp134
Rp135
(dp136
g48
g33
sbsba(iMethods
Instance
p137
(dp138
g38
(iMethods
FeatureVector
p139
(dp140
g41
(dp141
I0
F1.0
sI1
F2.0
sI2
F1.0
sI3
F1.0
sI4
F4.0
sI5
F2.0
ssbsg43
g0
(g44
g2
Ntp142
Rp143
(dp144
g48
g33
sbsba(iMethods
Instance
p145
(dp146
g38
(iMethods
FeatureVector
p147
(dp148
g41
(dp149
I0
F1.0
sI1
F2.0
sI2
F1.0
sI3
F2.0
sI4
F1.0
sI5
F1.0
ssbsg43
g0
(g44
g2
Ntp150
Rp151
(dp152
g48
g20
sbsba(iMethods
Instance
p153
(dp154
g38
(iMethods
FeatureVector
p155
(dp156
g41
(dp157
I0
F1.0
sI1
F2.0
sI2
F1.0
sI3
F2.0
sI4
F3.0
sI5
F1.0
ssbsg43
g0
(g44
g2
Ntp158
Rp159
(dp160
g48
g33
sbsba(iMethods
Instance
p161
(dp162
g38
(iMethods
FeatureVector
p163
(dp164
g41
(dp165
I0
F1.0
sI1
F2.0
sI2
F1.0
sI3
F2.0
sI4
F3.0
sI5
F2.0
ssbsg43
g0
(g44
g2
Ntp166
Rp167
(dp168
g48
g33
sbsba(iMethods
Instance
p169
(dp170
g38
(iMethods
FeatureVector
p171
(dp172
g41
(dp173
I0
F1.0
sI1
F2.0
sI2
F1.0
sI3
F2.0
sI4
F4.0
sI5
F2.0
ssbsg43
g0
(g44
g2
Ntp174
Rp175
(dp176
g48
g33
sbsba(iMethods
Instance
p177
(dp178
g38
(iMethods
FeatureVector
p179
(dp180
g41
(dp181
I0
F1.0
sI1
F2.0
sI2
F1.0
sI3
F3.0
sI4
F2.0
sI5
F1.0
ssbsg43
g0
(g44
g2
Ntp182
Rp183
(dp184
g48
g33
sbsba(iMethods
Instance
p185
(dp186
g38
(iMethods
FeatureVector
p187
(dp188
g41
(dp189
I0
F1.0
sI1
F2.0
sI2
F1.0
sI3
F3.0
sI4
F4.0
sI5
F2.0
ssbsg43
g0
(g44
g2
Ntp190
Rp191
(dp192
g48
g33
sbsba(iMethods
Instance
p193
(dp194
g38
(iMethods
FeatureVector
p195
(dp196
g41
(dp197
I0
F1.0
sI1
F2.0
sI2
F2.0
sI3
F1.0
sI4
F2.0
sI5
F2.0
ssbsg43
g0
(g44
g2
Ntp198
Rp199
(dp200
g48
g33
sbsba(iMethods
Instance
p201
(dp202
g38
(iMethods
FeatureVector
p203
(dp204
g41
(dp205
I0
F1.0
sI1
F2.0
sI2
F2.0
sI3
F2.0
sI4
F3.0
sI5
F2.0
ssbsg43
g0
(g44
g2
Ntp206
Rp207
(dp208
g48
g33
sbsba(iMethods
Instance
p209
(dp210
g38
(iMethods
FeatureVector
p211
(dp212
g41
(dp213
I0
F1.0
sI1
F2.0
sI2
F2.0
sI3
F2.0
sI4
F4.0
sI5
F1.0
ssbsg43
g0
(g44
g2
Ntp214
Rp215
(dp216
g48
g33
sbsba(iMethods
Instance
p217
(dp218
g38
(iMethods
FeatureVector
p219
(dp220
g41
(dp221
I0
F1.0
sI1
F2.0
sI2
F2.0
sI3
F2.0
sI4
F4.0
sI5
F2.0
ssbsg43
g0
(g44
g2
Ntp222
Rp223
(dp224
g48
g33
sbsba(iMethods
Instance
p225
(dp226
g38
(iMethods
FeatureVector
p227
(dp228
g41
(dp229
I0
F1.0
sI1
F2.0
sI2
F2.0
sI3
F3.0
sI4
F2.0
sI5
F2.0
ssbsg43
g0
(g44
g2
Ntp230
Rp231
(dp232
g48
g33
sbsba(iMethods
Instance
p233
(dp234
g38
(iMethods
FeatureVector
p235
(dp236
g41
(dp237
I0
F1.0
sI1
F2.0
sI2
F2.0
sI3
F3.0
sI4
F3.0
sI5
F1.0
ssbsg43
g0
(g44
g2
Ntp238
Rp239
(dp240
g48
g33
sbsba(iMethods
Instance
p241
(dp242
g38
(iMethods
FeatureVector
p243
(dp244
g41
(dp245
I0
F1.0
sI1
F2.0
sI2
F2.0
sI3
F3.0
sI4
F3.0
sI5
F2.0
ssbsg43
g0
(g44
g2
Ntp246
Rp247
(dp248
g48
g33
sbsba(iMethods
Instance
p249
(dp250
g38
(iMethods
FeatureVector
p251
(dp252
g41
(dp253
I0
F1.0
sI1
F3.0
sI2
F1.0
sI3
F1.0
sI4
F2.0
sI5
F1.0
ssbsg43
g0
(g44
g2
Ntp254
Rp255
(dp256
g48
g33
sbsba(iMethods
Instance
p257
(dp258
g38
(iMethods
FeatureVector
p259
(dp260
g41
(dp261
I0
F1.0
sI1
F3.0
sI2
F1.0
sI3
F1.0
sI4
F4.0
sI5
F1.0
ssbsg43
g0
(g44
g2
Ntp262
Rp263
(dp264
g48
g33
sbsba(iMethods
Instance
p265
(dp266
g38
(iMethods
FeatureVector
p267
(dp268
g41
(dp269
I0
F1.0
sI1
F3.0
sI2
F1.0
sI3
F2.0
sI4
F2.0
sI5
F1.0
ssbsg43
g0
(g44
g2
Ntp270
Rp271
(dp272
g48
g33
sbsba(iMethods
Instance
p273
(dp274
g38
(iMethods
FeatureVector
p275
(dp276
g41
(dp277
I0
F1.0
sI1
F3.0
sI2
F1.0
sI3
F2.0
sI4
F4.0
sI5
F1.0
ssbsg43
g0
(g44
g2
Ntp278
Rp279
(dp280
g48
g33
sbsba(iMethods
Instance
p281
(dp282
g38
(iMethods
FeatureVector
p283
(dp284
g41
(dp285
I0
F1.0
sI1
F3.0
sI2
F1.0
sI3
F3.0
sI4
F1.0
sI5
F2.0
ssbsg43
g0
(g44
g2
Ntp286
Rp287
(dp288
g48
g20
sbsba(iMethods
Instance
p289
(dp290
g38
(iMethods
FeatureVector
p291
(dp292
g41
(dp293
I0
F1.0
sI1
F3.0
sI2
F1.0
sI3
F3.0
sI4
F2.0
sI5
F2.0
ssbsg43
g0
(g44
g2
Ntp294
Rp295
(dp296
g48
g33
sbsba(iMethods
Instance
p297
(dp298
g38
(iMethods
FeatureVector
p299
(dp300
g41
(dp301
I0
F1.0
sI1
F3.0
sI2
F1.0
sI3
F3.0
sI4
F3.0
sI5
F1.0
ssbsg43
g0
(g44
g2
Ntp302
Rp303
(dp304
g48
g33
sbsba(iMethods
Instance
p305
(dp306
g38
(iMethods
FeatureVector
p307
(dp308
g41
(dp309
I0
F1.0
sI1
F3.0
sI2
F1.0
sI3
F3.0
sI4
F4.0
sI5
F1.0
ssbsg43
g0
(g44
g2
Ntp310
Rp311
(dp312
g48
g33
sbsba(iMethods
Instance
p313
(dp314
g38
(iMethods
FeatureVector
p315
(dp316
g41
(dp317
I0
F1.0
sI1
F3.0
sI2
F1.0
sI3
F3.0
sI4
F4.0
sI5
F2.0
ssbsg43
g0
(g44
g2
Ntp318
Rp319
(dp320
g48
g33
sbsba(iMethods
Instance
p321
(dp322
g38
(iMethods
FeatureVector
p323
(dp324
g41
(dp325
I0
F1.0
sI1
F3.0
sI2
F2.0
sI3
F1.0
sI4
F2.0
sI5
F2.0
ssbsg43
g0
(g44
g2
Ntp326
Rp327
(dp328
g48
g33
sbsba(iMethods
Instance
p329
(dp330
g38
(iMethods
FeatureVector
p331
(dp332
g41
(dp333
I0
F1.0
sI1
F3.0
sI2
F2.0
sI3
F2.0
sI4
F1.0
sI5
F2.0
ssbsg43
g0
(g44
g2
Ntp334
Rp335
(dp336
g48
g20
sbsba(iMethods
Instance
p337
(dp338
g38
(iMethods
FeatureVector
p339
(dp340
g41
(dp341
I0
F1.0
sI1
F3.0
sI2
F2.0
sI3
F2.0
sI4
F2.0
sI5
F2.0
ssbsg43
g0
(g44
g2
Ntp342
Rp343
(dp344
g48
g33
sbsba(iMethods
Instance
p345
(dp346
g38
(iMethods
FeatureVector
p347
(dp348
g41
(dp349
I0
F1.0
sI1
F3.0
sI2
F2.0
sI3
F2.0
sI4
F3.0
sI5
F2.0
ssbsg43
g0
(g44
g2
Ntp350
Rp351
(dp352
g48
g33
sbsba(iMethods
Instance
p353
(dp354
g38
(iMethods
FeatureVector
p355
(dp356
g41
(dp357
I0
F1.0
sI1
F3.0
sI2
F2.0
sI3
F2.0
sI4
F4.0
sI5
F1.0
ssbsg43
g0
(g44
g2
Ntp358
Rp359
(dp360
g48
g33
sbsba(iMethods
Instance
p361
(dp362
g38
(iMethods
FeatureVector
p363
(dp364
g41
(dp365
I0
F1.0
sI1
F3.0
sI2
F2.0
sI3
F2.0
sI4
F4.0
sI5
F2.0
ssbsg43
g0
(g44
g2
Ntp366
Rp367
(dp368
g48
g33
sbsba(iMethods
Instance
p369
(dp370
g38
(iMethods
FeatureVector
p371
(dp372
g41
(dp373
I0
F1.0
sI1
F3.0
sI2
F2.0
sI3
F3.0
sI4
F1.0
sI5
F1.0
ssbsg43
g0
(g44
g2
Ntp374
Rp375
(dp376
g48
g20
sbsba(iMethods
Instance
p377
(dp378
g38
(iMethods
FeatureVector
p379
(dp380
g41
(dp381
I0
F1.0
sI1
F3.0
sI2
F2.0
sI3
F3.0
sI4
F2.0
sI5
F1.0
ssbsg43
g0
(g44
g2
Ntp382
Rp383
(dp384
g48
g33
sbsba(iMethods
Instance
p385
(dp386
g38
(iMethods
FeatureVector
p387
(dp388
g41
(dp389
I0
F1.0
sI1
F3.0
sI2
F2.0
sI3
F3.0
sI4
F4.0
sI5
F1.0
ssbsg43
g0
(g44
g2
Ntp390
Rp391
(dp392
g48
g33
sbsba(iMethods
Instance
p393
(dp394
g38
(iMethods
FeatureVector
p395
(dp396
g41
(dp397
I0
F1.0
sI1
F3.0
sI2
F2.0
sI3
F3.0
sI4
F4.0
sI5
F2.0
ssbsg43
g0
(g44
g2
Ntp398
Rp399
(dp400
g48
g33
sbsba(iMethods
Instance
p401
(dp402
g38
(iMethods
FeatureVector
p403
(dp404
g41
(dp405
I0
F2.0
sI1
F1.0
sI2
F1.0
sI3
F1.0
sI4
F3.0
sI5
F1.0
ssbsg43
g0
(g44
g2
Ntp406
Rp407
(dp408
g48
g33
sbsba(iMethods
Instance
p409
(dp410
g38
(iMethods
FeatureVector
p411
(dp412
g41
(dp413
I0
F2.0
sI1
F1.0
sI2
F1.0
sI3
F1.0
sI4
F3.0
sI5
F2.0
ssbsg43
g0
(g44
g2
Ntp414
Rp415
(dp416
g48
g33
sbsba(iMethods
Instance
p417
(dp418
g38
(iMethods
FeatureVector
p419
(dp420
g41
(dp421
I0
F2.0
sI1
F1.0
sI2
F1.0
sI3
F2.0
sI4
F1.0
sI5
F1.0
ssbsg43
g0
(g44
g2
Ntp422
Rp423
(dp424
g48
g20
sbsba(iMethods
Instance
p425
(dp426
g38
(iMethods
FeatureVector
p427
(dp428
g41
(dp429
I0
F2.0
sI1
F1.0
sI2
F1.0
sI3
F2.0
sI4
F1.0
sI5
F2.0
ssbsg43
g0
(g44
g2
Ntp430
Rp431
(dp432
g48
g20
sbsba(iMethods
Instance
p433
(dp434
g38
(iMethods
FeatureVector
p435
(dp436
g41
(dp437
I0
F2.0
sI1
F1.0
sI2
F1.0
sI3
F2.0
sI4
F2.0
sI5
F2.0
ssbsg43
g0
(g44
g2
Ntp438
Rp439
(dp440
g48
g33
sbsba(iMethods
Instance
p441
(dp442
g38
(iMethods
FeatureVector
p443
(dp444
g41
(dp445
I0
F2.0
sI1
F1.0
sI2
F1.0
sI3
F2.0
sI4
F3.0
sI5
F1.0
ssbsg43
g0
(g44
g2
Ntp446
Rp447
(dp448
g48
g33
sbsba(iMethods
Instance
p449
(dp450
g38
(iMethods
FeatureVector
p451
(dp452
g41
(dp453
I0
F2.0
sI1
F1.0
sI2
F1.0
sI3
F2.0
sI4
F4.0
sI5
F1.0
ssbsg43
g0
(g44
g2
Ntp454
Rp455
(dp456
g48
g33
sbsba(iMethods
Instance
p457
(dp458
g38
(iMethods
FeatureVector
p459
(dp460
g41
(dp461
I0
F2.0
sI1
F1.0
sI2
F1.0
sI3
F2.0
sI4
F4.0
sI5
F2.0
ssbsg43
g0
(g44
g2
Ntp462
Rp463
(dp464
g48
g33
sbsba(iMethods
Instance
p465
(dp466
g38
(iMethods
FeatureVector
p467
(dp468
g41
(dp469
I0
F2.0
sI1
F1.0
sI2
F1.0
sI3
F3.0
sI4
F4.0
sI5
F1.0
ssbsg43
g0
(g44
g2
Ntp470
Rp471
(dp472
g48
g33
sbsba(iMethods
Instance
p473
(dp474
g38
(iMethods
FeatureVector
p475
(dp476
g41
(dp477
I0
F2.0
sI1
F1.0
sI2
F2.0
sI3
F1.0
sI4
F2.0
sI5
F2.0
ssbsg43
g0
(g44
g2
Ntp478
Rp479
(dp480
g48
g33
sbsba(iMethods
Instance
p481
(dp482
g38
(iMethods
FeatureVector
p483
(dp484
g41
(dp485
I0
F2.0
sI1
F1.0
sI2
F2.0
sI3
F1.0
sI4
F3.0
sI5
F1.0
ssbsg43
g0
(g44
g2
Ntp486
Rp487
(dp488
g48
g33
sbsba(iMethods
Instance
p489
(dp490
g38
(iMethods
FeatureVector
p491
(dp492
g41
(dp493
I0
F2.0
sI1
F1.0
sI2
F2.0
sI3
F1.0
sI4
F4.0
sI5
F2.0
ssbsg43
g0
(g44
g2
Ntp494
Rp495
(dp496
g48
g33
sbsba(iMethods
Instance
p497
(dp498
g38
(iMethods
FeatureVector
p499
(dp500
g41
(dp501
I0
F2.0
sI1
F1.0
sI2
F2.0
sI3
F2.0
sI4
F3.0
sI5
F1.0
ssbsg43
g0
(g44
g2
Ntp502
Rp503
(dp504
g48
g33
sbsba(iMethods
Instance
p505
(dp506
g38
(iMethods
FeatureVector
p507
(dp508
g41
(dp509
I0
F2.0
sI1
F1.0
sI2
F2.0
sI3
F2.0
sI4
F4.0
sI5
F2.0
ssbsg43
g0
(g44
g2
Ntp510
Rp511
(dp512
g48
g33
sbsba(iMethods
Instance
p513
(dp514
g38
(iMethods
FeatureVector
p515
(dp516
g41
(dp517
I0
F2.0
sI1
F1.0
sI2
F2.0
sI3
F3.0
sI4
F2.0
sI5
F2.0
ssbsg43
g0
(g44
g2
Ntp518
Rp519
(dp520
g48
g33
sbsba(iMethods
Instance
p521
(dp522
g38
(iMethods
FeatureVector
p523
(dp524
g41
(dp525
I0
F2.0
sI1
F1.0
sI2
F2.0
sI3
F3.0
sI4
F4.0
sI5
F1.0
ssbsg43
g0
(g44
g2
Ntp526
Rp527
(dp528
g48
g33
sbsba(iMethods
Instance
p529
(dp530
g38
(iMethods
FeatureVector
p531
(dp532
g41
(dp533
I0
F2.0
sI1
F2.0
sI2
F1.0
sI3
F1.0
sI4
F2.0
sI5
F1.0
ssbsg43
g0
(g44
g2
Ntp534
Rp535
(dp536
g48
g20
sbsba(iMethods
Instance
p537
(dp538
g38
(iMethods
FeatureVector
p539
(dp540
g41
(dp541
I0
F2.0
sI1
F2.0
sI2
F1.0
sI3
F1.0
sI4
F2.0
sI5
F2.0
ssbsg43
g0
(g44
g2
Ntp542
Rp543
(dp544
g48
g20
sbsba(iMethods
Instance
p545
(dp546
g38
(iMethods
FeatureVector
p547
(dp548
g41
(dp549
I0
F2.0
sI1
F2.0
sI2
F1.0
sI3
F1.0
sI4
F3.0
sI5
F1.0
ssbsg43
g0
(g44
g2
Ntp550
Rp551
(dp552
g48
g20
sbsba(iMethods
Instance
p553
(dp554
g38
(iMethods
FeatureVector
p555
(dp556
g41
(dp557
I0
F2.0
sI1
F2.0
sI2
F1.0
sI3
F2.0
sI4
F3.0
sI5
F2.0
ssbsg43
g0
(g44
g2
Ntp558
Rp559
(dp560
g48
g20
sbsba(iMethods
Instance
p561
(dp562
g38
(iMethods
FeatureVector
p563
(dp564
g41
(dp565
I0
F2.0
sI1
F2.0
sI2
F1.0
sI3
F3.0
sI4
F1.0
sI5
F1.0
ssbsg43
g0
(g44
g2
Ntp566
Rp567
(dp568
g48
g20
sbsba(iMethods
Instance
p569
(dp570
g38
(iMethods
FeatureVector
p571
(dp572
g41
(dp573
I0
F2.0
sI1
F2.0
sI2
F1.0
sI3
F3.0
sI4
F1.0
sI5
F2.0
ssbsg43
g0
(g44
g2
Ntp574
Rp575
(dp576
g48
g20
sbsba(iMethods
Instance
p577
(dp578
g38
(iMethods
FeatureVector
p579
(dp580
g41
(dp581
I0
F2.0
sI1
F2.0
sI2
F1.0
sI3
F3.0
sI4
F2.0
sI5
F2.0
ssbsg43
g0
(g44
g2
Ntp582
Rp583
(dp584
g48
g20
sbsba(iMethods
Instance
p585
(dp586
g38
(iMethods
FeatureVector
p587
(dp588
g41
(dp589
I0
F2.0
sI1
F2.0
sI2
F1.0
sI3
F3.0
sI4
F3.0
sI5
F2.0
ssbsg43
g0
(g44
g2
Ntp590
Rp591
(dp592
g48
g20
sbsba(iMethods
Instance
p593
(dp594
g38
(iMethods
FeatureVector
p595
(dp596
g41
(dp597
I0
F2.0
sI1
F2.0
sI2
F1.0
sI3
F3.0
sI4
F4.0
sI5
F2.0
ssbsg43
g0
(g44
g2
Ntp598
Rp599
(dp600
g48
g20
sbsba(iMethods
Instance
p601
(dp602
g38
(iMethods
FeatureVector
p603
(dp604
g41
(dp605
I0
F2.0
sI1
F2.0
sI2
F2.0
sI3
F1.0
sI4
F1.0
sI5
F1.0
ssbsg43
g0
(g44
g2
Ntp606
Rp607
(dp608
g48
g20
sbsba(iMethods
Instance
p609
(dp610
g38
(iMethods
FeatureVector
p611
(dp612
g41
(dp613
I0
F2.0
sI1
F2.0
sI2
F2.0
sI3
F1.0
sI4
F3.0
sI5
F2.0
ssbsg43
g0
(g44
g2
Ntp614
Rp615
(dp616
g48
g20
sbsba(iMethods
Instance
p617
(dp618
g38
(iMethods
FeatureVector
p619
(dp620
g41
(dp621
I0
F2.0
sI1
F2.0
sI2
F2.0
sI3
F1.0
sI4
F4.0
sI5
F1.0
ssbsg43
g0
(g44
g2
Ntp622
Rp623
(dp624
g48
g20
sbsba(iMethods
Instance
p625
(dp626
g38
(iMethods
FeatureVector
p627
(dp628
g41
(dp629
I0
F2.0
sI1
F2.0
sI2
F2.0
sI3
F1.0
sI4
F4.0
sI5
F2.0
ssbsg43
g0
(g44
g2
Ntp630
Rp631
(dp632
g48
g20
sbsba(iMethods
Instance
p633
(dp634
g38
(iMethods
FeatureVector
p635
(dp636
g41
(dp637
I0
F2.0
sI1
F2.0
sI2
F2.0
sI3
F2.0
sI4
F2.0
sI5
F1.0
ssbsg43
g0
(g44
g2
Ntp638
Rp639
(dp640
g48
g20
sbsba(iMethods
Instance
p641
(dp642
g38
(iMethods
FeatureVector
p643
(dp644
g41
(dp645
I0
F2.0
sI1
F2.0
sI2
F2.0
sI3
F3.0
sI4
F4.0
sI5
F1.0
ssbsg43
g0
(g44
g2
Ntp646
Rp647
(dp648
g48
g20
sbsba(iMethods
Instance
p649
(dp650
g38
(iMethods
FeatureVector
p651
(dp652
g41
(dp653
I0
F2.0
sI1
F3.0
sI2
F1.0
sI3
F1.0
sI4
F1.0
sI5
F1.0
ssbsg43
g0
(g44
g2
Ntp654
Rp655
(dp656
g48
g20
sbsba(iMethods
Instance
p657
(dp658
g38
(iMethods
FeatureVector
p659
(dp660
g41
(dp661
I0
F2.0
sI1
F3.0
sI2
F1.0
sI3
F2.0
sI4
F1.0
sI5
F1.0
ssbsg43
g0
(g44
g2
Ntp662
Rp663
(dp664
g48
g20
sbsba(iMethods
Instance
p665
(dp666
g38
(iMethods
FeatureVector
p667
(dp668
g41
(dp669
I0
F2.0
sI1
F3.0
sI2
F1.0
sI3
F2.0
sI4
F3.0
sI5
F1.0
ssbsg43
g0
(g44
g2
Ntp670
Rp671
(dp672
g48
g33
sbsba(iMethods
Instance
p673
(dp674
g38
(iMethods
FeatureVector
p675
(dp676
g41
(dp677
I0
F2.0
sI1
F3.0
sI2
F1.0
sI3
F3.0
sI4
F1.0
sI5
F2.0
ssbsg43
g0
(g44
g2
Ntp678
Rp679
(dp680
g48
g20
sbsba(iMethods
Instance
p681
(dp682
g38
(iMethods
FeatureVector
p683
(dp684
g41
(dp685
I0
F2.0
sI1
F3.0
sI2
F1.0
sI3
F3.0
sI4
F3.0
sI5
F1.0
ssbsg43
g0
(g44
g2
Ntp686
Rp687
(dp688
g48
g33
sbsba(iMethods
Instance
p689
(dp690
g38
(iMethods
FeatureVector
p691
(dp692
g41
(dp693
I0
F2.0
sI1
F3.0
sI2
F1.0
sI3
F3.0
sI4
F4.0
sI5
F2.0
ssbsg43
g0
(g44
g2
Ntp694
Rp695
(dp696
g48
g33
sbsba(iMethods
Instance
p697
(dp698
g38
(iMethods
FeatureVector
p699
(dp700
g41
(dp701
I0
F2.0
sI1
F3.0
sI2
F2.0
sI3
F1.0
sI4
F3.0
sI5
F2.0
ssbsg43
g0
(g44
g2
Ntp702
Rp703
(dp704
g48
g33
sbsba(iMethods
Instance
p705
(dp706
g38
(iMethods
FeatureVector
p707
(dp708
g41
(dp709
I0
F2.0
sI1
F3.0
sI2
F2.0
sI3
F2.0
sI4
F1.0
sI5
F1.0
ssbsg43
g0
(g44
g2
Ntp710
Rp711
(dp712
g48
g20
sbsba(iMethods
Instance
p713
(dp714
g38
(iMethods
FeatureVector
p715
(dp716
g41
(dp717
I0
F2.0
sI1
F3.0
sI2
F2.0
sI3
F2.0
sI4
F1.0
sI5
F2.0
ssbsg43
g0
(g44
g2
Ntp718
Rp719
(dp720
g48
g20
sbsba(iMethods
Instance
p721
(dp722
g38
(iMethods
FeatureVector
p723
(dp724
g41
(dp725
I0
F2.0
sI1
F3.0
sI2
F2.0
sI3
F2.0
sI4
F2.0
sI5
F1.0
ssbsg43
g0
(g44
g2
Ntp726
Rp727
(dp728
g48
g33
sbsba(iMethods
Instance
p729
(dp730
g38
(iMethods
FeatureVector
p731
(dp732
g41
(dp733
I0
F2.0
sI1
F3.0
sI2
F2.0
sI3
F3.0
sI4
F3.0
sI5
F2.0
ssbsg43
g0
(g44
g2
Ntp734
Rp735
(dp736
g48
g33
sbsba(iMethods
Instance
p737
(dp738
g38
(iMethods
FeatureVector
p739
(dp740
g41
(dp741
I0
F3.0
sI1
F1.0
sI2
F1.0
sI3
F1.0
sI4
F1.0
sI5
F1.0
ssbsg43
g0
(g44
g2
Ntp742
Rp743
(dp744
g48
g20
sbsba(iMethods
Instance
p745
(dp746
g38
(iMethods
FeatureVector
p747
(dp748
g41
(dp749
I0
F3.0
sI1
F1.0
sI2
F1.0
sI3
F1.0
sI4
F1.0
sI5
F2.0
ssbsg43
g0
(g44
g2
Ntp750
Rp751
(dp752
g48
g20
sbsba(iMethods
Instance
p753
(dp754
g38
(iMethods
FeatureVector
p755
(dp756
g41
(dp757
I0
F3.0
sI1
F1.0
sI2
F1.0
sI3
F2.0
sI4
F1.0
sI5
F1.0
ssbsg43
g0
(g44
g2
Ntp758
Rp759
(dp760
g48
g20
sbsba(iMethods
Instance
p761
(dp762
g38
(iMethods
FeatureVector
p763
(dp764
g41
(dp765
I0
F3.0
sI1
F1.0
sI2
F1.0
sI3
F2.0
sI4
F2.0
sI5
F2.0
ssbsg43
g0
(g44
g2
Ntp766
Rp767
(dp768
g48
g33
sbsba(iMethods
Instance
p769
(dp770
g38
(iMethods
FeatureVector
p771
(dp772
g41
(dp773
I0
F3.0
sI1
F1.0
sI2
F1.0
sI3
F3.0
sI4
F2.0
sI5
F2.0
ssbsg43
g0
(g44
g2
Ntp774
Rp775
(dp776
g48
g33
sbsba(iMethods
Instance
p777
(dp778
g38
(iMethods
FeatureVector
p779
(dp780
g41
(dp781
I0
F3.0
sI1
F1.0
sI2
F2.0
sI3
F1.0
sI4
F1.0
sI5
F1.0
ssbsg43
g0
(g44
g2
Ntp782
Rp783
(dp784
g48
g20
sbsba(iMethods
Instance
p785
(dp786
g38
(iMethods
FeatureVector
p787
(dp788
g41
(dp789
I0
F3.0
sI1
F1.0
sI2
F2.0
sI3
F1.0
sI4
F2.0
sI5
F2.0
ssbsg43
g0
(g44
g2
Ntp790
Rp791
(dp792
g48
g33
sbsba(iMethods
Instance
p793
(dp794
g38
(iMethods
FeatureVector
p795
(dp796
g41
(dp797
I0
F3.0
sI1
F1.0
sI2
F2.0
sI3
F2.0
sI4
F2.0
sI5
F2.0
ssbsg43
g0
(g44
g2
Ntp798
Rp799
(dp800
g48
g33
sbsba(iMethods
Instance
p801
(dp802
g38
(iMethods
FeatureVector
p803
(dp804
g41
(dp805
I0
F3.0
sI1
F1.0
sI2
F2.0
sI3
F2.0
sI4
F3.0
sI5
F2.0
ssbsg43
g0
(g44
g2
Ntp806
Rp807
(dp808
g48
g33
sbsba(iMethods
Instance
p809
(dp810
g38
(iMethods
FeatureVector
p811
(dp812
g41
(dp813
I0
F3.0
sI1
F1.0
sI2
F2.0
sI3
F3.0
sI4
F2.0
sI5
F2.0
ssbsg43
g0
(g44
g2
Ntp814
Rp815
(dp816
g48
g33
sbsba(iMethods
Instance
p817
(dp818
g38
(iMethods
FeatureVector
p819
(dp820
g41
(dp821
I0
F3.0
sI1
F2.0
sI2
F1.0
sI3
F1.0
sI4
F1.0
sI5
F1.0
ssbsg43
g0
(g44
g2
Ntp822
Rp823
(dp824
g48
g20
sbsba(iMethods
Instance
p825
(dp826
g38
(iMethods
FeatureVector
p827
(dp828
g41
(dp829
I0
F3.0
sI1
F2.0
sI2
F1.0
sI3
F1.0
sI4
F4.0
sI5
F2.0
ssbsg43
g0
(g44
g2
Ntp830
Rp831
(dp832
g48
g33
sbsba(iMethods
Instance
p833
(dp834
g38
(iMethods
FeatureVector
p835
(dp836
g41
(dp837
I0
F3.0
sI1
F2.0
sI2
F1.0
sI3
F2.0
sI4
F1.0
sI5
F2.0
ssbsg43
g0
(g44
g2
Ntp838
Rp839
(dp840
g48
g20
sbsba(iMethods
Instance
p841
(dp842
g38
(iMethods
FeatureVector
p843
(dp844
g41
(dp845
I0
F3.0
sI1
F2.0
sI2
F1.0
sI3
F2.0
sI4
F4.0
sI5
F2.0
ssbsg43
g0
(g44
g2
Ntp846
Rp847
(dp848
g48
g33
sbsba(iMethods
Instance
p849
(dp850
g38
(iMethods
FeatureVector
p851
(dp852
g41
(dp853
I0
F3.0
sI1
F2.0
sI2
F2.0
sI3
F1.0
sI4
F1.0
sI5
F1.0
ssbsg43
g0
(g44
g2
Ntp854
Rp855
(dp856
g48
g20
sbsba(iMethods
Instance
p857
(dp858
g38
(iMethods
FeatureVector
p859
(dp860
g41
(dp861
I0
F3.0
sI1
F2.0
sI2
F2.0
sI3
F1.0
sI4
F1.0
sI5
F2.0
ssbsg43
g0
(g44
g2
Ntp862
Rp863
(dp864
g48
g20
sbsba(iMethods
Instance
p865
(dp866
g38
(iMethods
FeatureVector
p867
(dp868
g41
(dp869
I0
F3.0
sI1
F2.0
sI2
F2.0
sI3
F1.0
sI4
F3.0
sI5
F2.0
ssbsg43
g0
(g44
g2
Ntp870
Rp871
(dp872
g48
g33
sbsba(iMethods
Instance
p873
(dp874
g38
(iMethods
FeatureVector
p875
(dp876
g41
(dp877
I0
F3.0
sI1
F2.0
sI2
F2.0
sI3
F3.0
sI4
F1.0
sI5
F1.0
ssbsg43
g0
(g44
g2
Ntp878
Rp879
(dp880
g48
g20
sbsba(iMethods
Instance
p881
(dp882
g38
(iMethods
FeatureVector
p883
(dp884
g41
(dp885
I0
F3.0
sI1
F2.0
sI2
F2.0
sI3
F3.0
sI4
F2.0
sI5
F1.0
ssbsg43
g0
(g44
g2
Ntp886
Rp887
(dp888
g48
g33
sbsba(iMethods
Instance
p889
(dp890
g38
(iMethods
FeatureVector
p891
(dp892
g41
(dp893
I0
F3.0
sI1
F2.0
sI2
F2.0
sI3
F3.0
sI4
F4.0
sI5
F1.0
ssbsg43
g0
(g44
g2
Ntp894
Rp895
(dp896
g48
g33
sbsba(iMethods
Instance
p897
(dp898
g38
(iMethods
FeatureVector
p899
(dp900
g41
(dp901
I0
F3.0
sI1
F3.0
sI2
F1.0
sI3
F1.0
sI4
F1.0
sI5
F1.0
ssbsg43
g0
(g44
g2
Ntp902
Rp903
(dp904
g48
g20
sbsba(iMethods
Instance
p905
(dp906
g38
(iMethods
FeatureVector
p907
(dp908
g41
(dp909
I0
F3.0
sI1
F3.0
sI2
F1.0
sI3
F1.0
sI4
F2.0
sI5
F1.0
ssbsg43
g0
(g44
g2
Ntp910
Rp911
(dp912
g48
g20
sbsba(iMethods
Instance
p913
(dp914
g38
(iMethods
FeatureVector
p915
(dp916
g41
(dp917
I0
F3.0
sI1
F3.0
sI2
F1.0
sI3
F1.0
sI4
F4.0
sI5
F2.0
ssbsg43
g0
(g44
g2
Ntp918
Rp919
(dp920
g48
g20
sbsba(iMethods
Instance
p921
(dp922
g38
(iMethods
FeatureVector
p923
(dp924
g41
(dp925
I0
F3.0
sI1
F3.0
sI2
F1.0
sI3
F2.0
sI4
F3.0
sI5
F2.0
ssbsg43
g0
(g44
g2
Ntp926
Rp927
(dp928
g48
g20
sbsba(iMethods
Instance
p929
(dp930
g38
(iMethods
FeatureVector
p931
(dp932
g41
(dp933
I0
F3.0
sI1
F3.0
sI2
F1.0
sI3
F2.0
sI4
F4.0
sI5
F2.0
ssbsg43
g0
(g44
g2
Ntp934
Rp935
(dp936
g48
g20
sbsba(iMethods
Instance
p937
(dp938
g38
(iMethods
FeatureVector
p939
(dp940
g41
(dp941
I0
F3.0
sI1
F3.0
sI2
F1.0
sI3
F3.0
sI4
F1.0
sI5
F2.0
ssbsg43
g0
(g44
g2
Ntp942
Rp943
(dp944
g48
g20
sbsba(iMethods
Instance
p945
(dp946
g38
(iMethods
FeatureVector
p947
(dp948
g41
(dp949
I0
F3.0
sI1
F3.0
sI2
F1.0
sI3
F3.0
sI4
F2.0
sI5
F1.0
ssbsg43
g0
(g44
g2
Ntp950
Rp951
(dp952
g48
g20
sbsba(iMethods
Instance
p953
(dp954
g38
(iMethods
FeatureVector
p955
(dp956
g41
(dp957
I0
F3.0
sI1
F3.0
sI2
F1.0
sI3
F3.0
sI4
F2.0
sI5
F2.0
ssbsg43
g0
(g44
g2
Ntp958
Rp959
(dp960
g48
g20
sbsba(iMethods
Instance
p961
(dp962
g38
(iMethods
FeatureVector
p963
(dp964
g41
(dp965
I0
F3.0
sI1
F3.0
sI2
F1.0
sI3
F3.0
sI4
F4.0
sI5
F2.0
ssbsg43
g0
(g44
g2
Ntp966
Rp967
(dp968
g48
g20
sbsba(iMethods
Instance
p969
(dp970
g38
(iMethods
FeatureVector
p971
(dp972
g41
(dp973
I0
F3.0
sI1
F3.0
sI2
F2.0
sI3
F1.0
sI4
F1.0
sI5
F1.0
ssbsg43
g0
(g44
g2
Ntp974
Rp975
(dp976
g48
g20
sbsba(iMethods
Instance
p977
(dp978
g38
(iMethods
FeatureVector
p979
(dp980
g41
(dp981
I0
F3.0
sI1
F3.0
sI2
F2.0
sI3
F1.0
sI4
F3.0
sI5
F2.0
ssbsg43
g0
(g44
g2
Ntp982
Rp983
(dp984
g48
g20
sbsba(iMethods
Instance
p985
(dp986
g38
(iMethods
FeatureVector
p987
(dp988
g41
(dp989
I0
F3.0
sI1
F3.0
sI2
F2.0
sI3
F1.0
sI4
F4.0
sI5
F1.0
ssbsg43
g0
(g44
g2
Ntp990
Rp991
(dp992
g48
g20
sbsba(iMethods
Instance
p993
(dp994
g38
(iMethods
FeatureVector
p995
(dp996
g41
(dp997
I0
F3.0
sI1
F3.0
sI2
F2.0
sI3
F1.0
sI4
F4.0
sI5
F2.0
ssbsg43
g0
(g44
g2
Ntp998
Rp999
(dp1000
g48
g20
sbsba(iMethods
Instance
p1001
(dp1002
g38
(iMethods
FeatureVector
p1003
(dp1004
g41
(dp1005
I0
F3.0
sI1
F3.0
sI2
F2.0
sI3
F3.0
sI4
F1.0
sI5
F2.0
ssbsg43
g0
(g44
g2
Ntp1006
Rp1007
(dp1008
g48
g20
sbsba(iMethods
Instance
p1009
(dp1010
g38
(iMethods
FeatureVector
p1011
(dp1012
g41
(dp1013
I0
F3.0
sI1
F3.0
sI2
F2.0
sI3
F3.0
sI4
F2.0
sI5
F2.0
ssbsg43
g0
(g44
g2
Ntp1014
Rp1015
(dp1016
g48
g20
sbsba(iMethods
Instance
p1017
(dp1018
g38
(iMethods
FeatureVector
p1019
(dp1020
g41
(dp1021
I0
F3.0
sI1
F3.0
sI2
F2.0
sI3
F3.0
sI4
F3.0
sI5
F2.0
ssbsg43
g0
(g44
g2
Ntp1022
Rp1023
(dp1024
g48
g20
sbsba(iMethods
Instance
p1025
(dp1026
g38
(iMethods
FeatureVector
p1027
(dp1028
g41
(dp1029
I0
F3.0
sI1
F3.0
sI2
F2.0
sI3
F3.0
sI4
F4.0
sI5
F2.0
ssbsg43
g0
(g44
g2
Ntp1030
Rp1031
(dp1032
g48
g20
sbsbasS'igr'
p1033
S''
p1034
sb.