ccopy_reg
_reconstructor
p0
(cDecisionTree
DecisionTree
p1
c__builtin__
object
p2
Ntp3
Rp4
(dp5
S'igr'
p6
S''
p7
sS'distinct_labels'
p8
(dp9
sS'full_labels'
p10
(lp11
sS'to_prune'
p12
I00
sS'examples'
p13
(lp14
(iMethods
Instance
p15
(dp16
S'_feature_vector'
p17
(iMethods
FeatureVector
p18
(dp19
S'feature_vec'
p20
(dp21
I0
F4.9
sI1
F3.0
sI2
F1.4
sI3
F0.2
ssbsS'_label'
p22
g0
(cMethods
ClassificationLabel
p23
g2
Ntp24
Rp25
(dp26
S'label_str'
p27
S'Iris-setosa'
p28
sbsba(iMethods
Instance
p29
(dp30
g17
(iMethods
FeatureVector
p31
(dp32
g20
(dp33
I0
F4.7
sI1
F3.2
sI2
F1.3
sI3
F0.2
ssbsg22
g0
(g23
g2
Ntp34
Rp35
(dp36
g27
S'Iris-setosa'
p37
sbsba(iMethods
Instance
p38
(dp39
g17
(iMethods
FeatureVector
p40
(dp41
g20
(dp42
I0
F4.6
sI1
F3.1
sI2
F1.5
sI3
F0.2
ssbsg22
g0
(g23
g2
Ntp43
Rp44
(dp45
g27
S'Iris-setosa'
p46
sbsba(iMethods
Instance
p47
(dp48
g17
(iMethods
FeatureVector
p49
(dp50
g20
(dp51
I0
F5.0
sI1
F3.6
sI2
F1.4
sI3
F0.2
ssbsg22
g0
(g23
g2
Ntp52
Rp53
(dp54
g27
S'Iris-setosa'
p55
sbsba(iMethods
Instance
p56
(dp57
g17
(iMethods
FeatureVector
p58
(dp59
g20
(dp60
I0
F4.6
sI1
F3.4
sI2
F1.4
sI3
F0.3
ssbsg22
g0
(g23
g2
Ntp61
Rp62
(dp63
g27
S'Iris-setosa'
p64
sbsba(iMethods
Instance
p65
(dp66
g17
(iMethods
FeatureVector
p67
(dp68
g20
(dp69
I0
F5.0
sI1
F3.4
sI2
F1.5
sI3
F0.2
ssbsg22
g0
(g23
g2
Ntp70
Rp71
(dp72
g27
S'Iris-setosa'
p73
sbsba(iMethods
Instance
p74
(dp75
g17
(iMethods
FeatureVector
p76
(dp77
g20
(dp78
I0
F4.4
sI1
F2.9
sI2
F1.4
sI3
F0.2
ssbsg22
g0
(g23
g2
Ntp79
Rp80
(dp81
g27
S'Iris-setosa'
p82
sbsba(iMethods
Instance
p83
(dp84
g17
(iMethods
FeatureVector
p85
(dp86
g20
(dp87
I0
F4.9
sI1
F3.1
sI2
F1.5
sI3
F0.1
ssbsg22
g0
(g23
g2
Ntp88
Rp89
(dp90
g27
S'Iris-setosa'
p91
sbsba(iMethods
Instance
p92
(dp93
g17
(iMethods
FeatureVector
p94
(dp95
g20
(dp96
I0
F4.8
sI1
F3.4
sI2
F1.6
sI3
F0.2
ssbsg22
g0
(g23
g2
Ntp97
Rp98
(dp99
g27
S'Iris-setosa'
p100
sbsba(iMethods
Instance
p101
(dp102
g17
(iMethods
FeatureVector
p103
(dp104
g20
(dp105
I0
F4.8
sI1
F3.0
sI2
F1.4
sI3
F0.1
ssbsg22
g0
(g23
g2
Ntp106
Rp107
(dp108
g27
S'Iris-setosa'
p109
sbsba(iMethods
Instance
p110
(dp111
g17
(iMethods
FeatureVector
p112
(dp113
g20
(dp114
I0
F4.3
sI1
F3.0
sI2
F1.1
sI3
F0.1
ssbsg22
g0
(g23
g2
Ntp115
Rp116
(dp117
g27
S'Iris-setosa'
p118
sbsba(iMethods
Instance
p119
(dp120
g17
(iMethods
FeatureVector
p121
(dp122
g20
(dp123
I0
F5.8
sI1
F4.0
sI2
F1.2
sI3
F0.2
ssbsg22
g0
(g23
g2
Ntp124
Rp125
(dp126
g27
S'Iris-setosa'
p127
sbsba(iMethods
Instance
p128
(dp129
g17
(iMethods
FeatureVector
p130
(dp131
g20
(dp132
I0
F5.4
sI1
F3.9
sI2
F1.3
sI3
F0.4
ssbsg22
g0
(g23
g2
Ntp133
Rp134
(dp135
g27
S'Iris-setosa'
p136
sbsba(iMethods
Instance
p137
(dp138
g17
(iMethods
FeatureVector
p139
(dp140
g20
(dp141
I0
F5.1
sI1
F3.5
sI2
F1.4
sI3
F0.3
ssbsg22
g0
(g23
g2
Ntp142
Rp143
(dp144
g27
S'Iris-setosa'
p145
sbsba(iMethods
Instance
p146
(dp147
g17
(iMethods
FeatureVector
p148
(dp149
g20
(dp150
I0
F5.7
sI1
F3.8
sI2
F1.7
sI3
F0.3
ssbsg22
g0
(g23
g2
Ntp151
Rp152
(dp153
g27
S'Iris-setosa'
p154
sbsba(iMethods
Instance
p155
(dp156
g17
(iMethods
FeatureVector
p157
(dp158
g20
(dp159
I0
F5.1
sI1
F3.8
sI2
F1.5
sI3
F0.3
ssbsg22
g0
(g23
g2
Ntp160
Rp161
(dp162
g27
S'Iris-setosa'
p163
sbsba(iMethods
Instance
p164
(dp165
g17
(iMethods
FeatureVector
p166
(dp167
g20
(dp168
I0
F5.1
sI1
F3.7
sI2
F1.5
sI3
F0.4
ssbsg22
g0
(g23
g2
Ntp169
Rp170
(dp171
g27
S'Iris-setosa'
p172
sbsba(iMethods
Instance
p173
(dp174
g17
(iMethods
FeatureVector
p175
(dp176
g20
(dp177
I0
F4.6
sI1
F3.6
sI2
F1.0
sI3
F0.2
ssbsg22
g0
(g23
g2
Ntp178
Rp179
(dp180
g27
S'Iris-setosa'
p181
sbsba(iMethods
Instance
p182
(dp183
g17
(iMethods
FeatureVector
p184
(dp185
g20
(dp186
I0
F5.1
sI1
F3.3
sI2
F1.7
sI3
F0.5
ssbsg22
g0
(g23
g2
Ntp187
Rp188
(dp189
g27
S'Iris-setosa'
p190
sbsba(iMethods
Instance
p191
(dp192
g17
(iMethods
FeatureVector
p193
(dp194
g20
(dp195
I0
F4.8
sI1
F3.4
sI2
F1.9
sI3
F0.2
ssbsg22
g0
(g23
g2
Ntp196
Rp197
(dp198
g27
S'Iris-setosa'
p199
sbsba(iMethods
Instance
p200
(dp201
g17
(iMethods
FeatureVector
p202
(dp203
g20
(dp204
I0
F5.0
sI1
F3.4
sI2
F1.6
sI3
F0.4
ssbsg22
g0
(g23
g2
Ntp205
Rp206
(dp207
g27
S'Iris-setosa'
p208
sbsba(iMethods
Instance
p209
(dp210
g17
(iMethods
FeatureVector
p211
(dp212
g20
(dp213
I0
F5.2
sI1
F3.5
sI2
F1.5
sI3
F0.2
ssbsg22
g0
(g23
g2
Ntp214
Rp215
(dp216
g27
S'Iris-setosa'
p217
sbsba(iMethods
Instance
p218
(dp219
g17
(iMethods
FeatureVector
p220
(dp221
g20
(dp222
I0
F5.2
sI1
F3.4
sI2
F1.4
sI3
F0.2
ssbsg22
g0
(g23
g2
Ntp223
Rp224
(dp225
g27
S'Iris-setosa'
p226
sbsba(iMethods
Instance
p227
(dp228
g17
(iMethods
FeatureVector
p229
(dp230
g20
(dp231
I0
F4.7
sI1
F3.2
sI2
F1.6
sI3
F0.2
ssbsg22
g0
(g23
g2
Ntp232
Rp233
(dp234
g27
S'Iris-setosa'
p235
sbsba(iMethods
Instance
p236
(dp237
g17
(iMethods
FeatureVector
p238
(dp239
g20
(dp240
I0
F5.4
sI1
F3.4
sI2
F1.5
sI3
F0.4
ssbsg22
g0
(g23
g2
Ntp241
Rp242
(dp243
g27
S'Iris-setosa'
p244
sbsba(iMethods
Instance
p245
(dp246
g17
(iMethods
FeatureVector
p247
(dp248
g20
(dp249
I0
F5.2
sI1
F4.1
sI2
F1.5
sI3
F0.1
ssbsg22
g0
(g23
g2
Ntp250
Rp251
(dp252
g27
S'Iris-setosa'
p253
sbsba(iMethods
Instance
p254
(dp255
g17
(iMethods
FeatureVector
p256
(dp257
g20
(dp258
I0
F5.5
sI1
F4.2
sI2
F1.4
sI3
F0.2
ssbsg22
g0
(g23
g2
Ntp259
Rp260
(dp261
g27
S'Iris-setosa'
p262
sbsba(iMethods
Instance
p263
(dp264
g17
(iMethods
FeatureVector
p265
(dp266
g20
(dp267
I0
F4.9
sI1
F3.1
sI2
F1.5
sI3
F0.1
ssbsg22
g0
(g23
g2
Ntp268
Rp269
(dp270
g27
S'Iris-setosa'
p271
sbsba(iMethods
Instance
p272
(dp273
g17
(iMethods
FeatureVector
p274
(dp275
g20
(dp276
I0
F5.5
sI1
F3.5
sI2
F1.3
sI3
F0.2
ssbsg22
g0
(g23
g2
Ntp277
Rp278
(dp279
g27
S'Iris-setosa'
p280
sbsba(iMethods
Instance
p281
(dp282
g17
(iMethods
FeatureVector
p283
(dp284
g20
(dp285
I0
F4.9
sI1
F3.1
sI2
F1.5
sI3
F0.1
ssbsg22
g0
(g23
g2
Ntp286
Rp287
(dp288
g27
S'Iris-setosa'
p289
sbsba(iMethods
Instance
p290
(dp291
g17
(iMethods
FeatureVector
p292
(dp293
g20
(dp294
I0
F4.4
sI1
F3.0
sI2
F1.3
sI3
F0.2
ssbsg22
g0
(g23
g2
Ntp295
Rp296
(dp297
g27
S'Iris-setosa'
p298
sbsba(iMethods
Instance
p299
(dp300
g17
(iMethods
FeatureVector
p301
(dp302
g20
(dp303
I0
F5.1
sI1
F3.4
sI2
F1.5
sI3
F0.2
ssbsg22
g0
(g23
g2
Ntp304
Rp305
(dp306
g27
S'Iris-setosa'
p307
sbsba(iMethods
Instance
p308
(dp309
g17
(iMethods
FeatureVector
p310
(dp311
g20
(dp312
I0
F4.5
sI1
F2.3
sI2
F1.3
sI3
F0.3
ssbsg22
g0
(g23
g2
Ntp313
Rp314
(dp315
g27
S'Iris-setosa'
p316
sbsba(iMethods
Instance
p317
(dp318
g17
(iMethods
FeatureVector
p319
(dp320
g20
(dp321
I0
F4.4
sI1
F3.2
sI2
F1.3
sI3
F0.2
ssbsg22
g0
(g23
g2
Ntp322
Rp323
(dp324
g27
S'Iris-setosa'
p325
sbsba(iMethods
Instance
p326
(dp327
g17
(iMethods
FeatureVector
p328
(dp329
g20
(dp330
I0
F5.0
sI1
F3.5
sI2
F1.6
sI3
F0.6
ssbsg22
g0
(g23
g2
Ntp331
Rp332
(dp333
g27
S'Iris-setosa'
p334
sbsba(iMethods
Instance
p335
(dp336
g17
(iMethods
FeatureVector
p337
(dp338
g20
(dp339
I0
F5.1
sI1
F3.8
sI2
F1.9
sI3
F0.4
ssbsg22
g0
(g23
g2
Ntp340
Rp341
(dp342
g27
S'Iris-setosa'
p343
sbsba(iMethods
Instance
p344
(dp345
g17
(iMethods
FeatureVector
p346
(dp347
g20
(dp348
I0
F5.1
sI1
F3.8
sI2
F1.6
sI3
F0.2
ssbsg22
g0
(g23
g2
Ntp349
Rp350
(dp351
g27
S'Iris-setosa'
p352
sbsba(iMethods
Instance
p353
(dp354
g17
(iMethods
FeatureVector
p355
(dp356
g20
(dp357
I0
F4.6
sI1
F3.2
sI2
F1.4
sI3
F0.2
ssbsg22
g0
(g23
g2
Ntp358
Rp359
(dp360
g27
S'Iris-setosa'
p361
sbsba(iMethods
Instance
p362
(dp363
g17
(iMethods
FeatureVector
p364
(dp365
g20
(dp366
I0
F5.3
sI1
F3.7
sI2
F1.5
sI3
F0.2
ssbsg22
g0
(g23
g2
Ntp367
Rp368
(dp369
g27
S'Iris-setosa'
p370
sbsba(iMethods
Instance
p371
(dp372
g17
(iMethods
FeatureVector
p373
(dp374
g20
(dp375
I0
F5.0
sI1
F3.3
sI2
F1.4
sI3
F0.2
ssbsg22
g0
(g23
g2
Ntp376
Rp377
(dp378
g27
S'Iris-setosa'
p379
sbsba(iMethods
Instance
p380
(dp381
g17
(iMethods
FeatureVector
p382
(dp383
g20
(dp384
I0
F6.4
sI1
F3.2
sI2
F4.5
sI3
F1.5
ssbsg22
g0
(g23
g2
Ntp385
Rp386
(dp387
g27
S'Iris-versicolor'
p388
sbsba(iMethods
Instance
p389
(dp390
g17
(iMethods
FeatureVector
p391
(dp392
g20
(dp393
I0
F6.9
sI1
F3.1
sI2
F4.9
sI3
F1.5
ssbsg22
g0
(g23
g2
Ntp394
Rp395
(dp396
g27
S'Iris-versicolor'
p397
sbsba(iMethods
Instance
p398
(dp399
g17
(iMethods
FeatureVector
p400
(dp401
g20
(dp402
I0
F5.5
sI1
F2.3
sI2
F4.0
sI3
F1.3
ssbsg22
g0
(g23
g2
Ntp403
Rp404
(dp405
g27
S'Iris-versicolor'
p406
sbsba(iMethods
Instance
p407
(dp408
g17
(iMethods
FeatureVector
p409
(dp410
g20
(dp411
I0
F6.5
sI1
F2.8
sI2
F4.6
sI3
F1.5
ssbsg22
g0
(g23
g2
Ntp412
Rp413
(dp414
g27
S'Iris-versicolor'
p415
sbsba(iMethods
Instance
p416
(dp417
g17
(iMethods
FeatureVector
p418
(dp419
g20
(dp420
I0
F6.3
sI1
F3.3
sI2
F4.7
sI3
F1.6
ssbsg22
g0
(g23
g2
Ntp421
Rp422
(dp423
g27
S'Iris-versicolor'
p424
sbsba(iMethods
Instance
p425
(dp426
g17
(iMethods
FeatureVector
p427
(dp428
g20
(dp429
I0
F4.9
sI1
F2.4
sI2
F3.3
sI3
F1.0
ssbsg22
g0
(g23
g2
Ntp430
Rp431
(dp432
g27
S'Iris-versicolor'
p433
sbsba(iMethods
Instance
p434
(dp435
g17
(iMethods
FeatureVector
p436
(dp437
g20
(dp438
I0
F6.6
sI1
F2.9
sI2
F4.6
sI3
F1.3
ssbsg22
g0
(g23
g2
Ntp439
Rp440
(dp441
g27
S'Iris-versicolor'
p442
sbsba(iMethods
Instance
p443
(dp444
g17
(iMethods
FeatureVector
p445
(dp446
g20
(dp447
I0
F5.2
sI1
F2.7
sI2
F3.9
sI3
F1.4
ssbsg22
g0
(g23
g2
Ntp448
Rp449
(dp450
g27
S'Iris-versicolor'
p451
sbsba(iMethods
Instance
p452
(dp453
g17
(iMethods
FeatureVector
p454
(dp455
g20
(dp456
I0
F5.9
sI1
F3.0
sI2
F4.2
sI3
F1.5
ssbsg22
g0
(g23
g2
Ntp457
Rp458
(dp459
g27
S'Iris-versicolor'
p460
sbsba(iMethods
Instance
p461
(dp462
g17
(iMethods
FeatureVector
p463
(dp464
g20
(dp465
I0
F6.0
sI1
F2.2
sI2
F4.0
sI3
F1.0
ssbsg22
g0
(g23
g2
Ntp466
Rp467
(dp468
g27
S'Iris-versicolor'
p469
sbsba(iMethods
Instance
p470
(dp471
g17
(iMethods
FeatureVector
p472
(dp473
g20
(dp474
I0
F6.1
sI1
F2.9
sI2
F4.7
sI3
F1.4
ssbsg22
g0
(g23
g2
Ntp475
Rp476
(dp477
g27
S'Iris-versicolor'
p478
sbsba(iMethods
Instance
p479
(dp480
g17
(iMethods
FeatureVector
p481
(dp482
g20
(dp483
I0
F5.6
sI1
F2.9
sI2
F3.6
sI3
F1.3
ssbsg22
g0
(g23
g2
Ntp484
Rp485
(dp486
g27
S'Iris-versicolor'
p487
sbsba(iMethods
Instance
p488
(dp489
g17
(iMethods
FeatureVector
p490
(dp491
g20
(dp492
I0
F5.6
sI1
F3.0
sI2
F4.5
sI3
F1.5
ssbsg22
g0
(g23
g2
Ntp493
Rp494
(dp495
g27
S'Iris-versicolor'
p496
sbsba(iMethods
Instance
p497
(dp498
g17
(iMethods
FeatureVector
p499
(dp500
g20
(dp501
I0
F5.8
sI1
F2.7
sI2
F4.1
sI3
F1.0
ssbsg22
g0
(g23
g2
Ntp502
Rp503
(dp504
g27
S'Iris-versicolor'
p505
sbsba(iMethods
Instance
p506
(dp507
g17
(iMethods
FeatureVector
p508
(dp509
g20
(dp510
I0
F6.2
sI1
F2.2
sI2
F4.5
sI3
F1.5
ssbsg22
g0
(g23
g2
Ntp511
Rp512
(dp513
g27
S'Iris-versicolor'
p514
sbsba(iMethods
Instance
p515
(dp516
g17
(iMethods
FeatureVector
p517
(dp518
g20
(dp519
I0
F5.6
sI1
F2.5
sI2
F3.9
sI3
F1.1
ssbsg22
g0
(g23
g2
Ntp520
Rp521
(dp522
g27
S'Iris-versicolor'
p523
sbsba(iMethods
Instance
p524
(dp525
g17
(iMethods
FeatureVector
p526
(dp527
g20
(dp528
I0
F6.1
sI1
F2.8
sI2
F4.0
sI3
F1.3
ssbsg22
g0
(g23
g2
Ntp529
Rp530
(dp531
g27
S'Iris-versicolor'
p532
sbsba(iMethods
Instance
p533
(dp534
g17
(iMethods
FeatureVector
p535
(dp536
g20
(dp537
I0
F6.3
sI1
F2.5
sI2
F4.9
sI3
F1.5
ssbsg22
g0
(g23
g2
Ntp538
Rp539
(dp540
g27
S'Iris-versicolor'
p541
sbsba(iMethods
Instance
p542
(dp543
g17
(iMethods
FeatureVector
p544
(dp545
g20
(dp546
I0
F6.1
sI1
F2.8
sI2
F4.7
sI3
F1.2
ssbsg22
g0
(g23
g2
Ntp547
Rp548
(dp549
g27
S'Iris-versicolor'
p550
sbsba(iMethods
Instance
p551
(dp552
g17
(iMethods
FeatureVector
p553
(dp554
g20
(dp555
I0
F6.4
sI1
F2.9
sI2
F4.3
sI3
F1.3
ssbsg22
g0
(g23
g2
Ntp556
Rp557
(dp558
g27
S'Iris-versicolor'
p559
sbsba(iMethods
Instance
p560
(dp561
g17
(iMethods
FeatureVector
p562
(dp563
g20
(dp564
I0
F6.8
sI1
F2.8
sI2
F4.8
sI3
F1.4
ssbsg22
g0
(g23
g2
Ntp565
Rp566
(dp567
g27
S'Iris-versicolor'
p568
sbsba(iMethods
Instance
p569
(dp570
g17
(iMethods
FeatureVector
p571
(dp572
g20
(dp573
I0
F6.7
sI1
F3.0
sI2
F5.0
sI3
F1.7
ssbsg22
g0
(g23
g2
Ntp574
Rp575
(dp576
g27
S'Iris-versicolor'
p577
sbsba(iMethods
Instance
p578
(dp579
g17
(iMethods
FeatureVector
p580
(dp581
g20
(dp582
I0
F6.0
sI1
F2.9
sI2
F4.5
sI3
F1.5
ssbsg22
g0
(g23
g2
Ntp583
Rp584
(dp585
g27
S'Iris-versicolor'
p586
sbsba(iMethods
Instance
p587
(dp588
g17
(iMethods
FeatureVector
p589
(dp590
g20
(dp591
I0
F5.7
sI1
F2.6
sI2
F3.5
sI3
F1.0
ssbsg22
g0
(g23
g2
Ntp592
Rp593
(dp594
g27
S'Iris-versicolor'
p595
sbsba(iMethods
Instance
p596
(dp597
g17
(iMethods
FeatureVector
p598
(dp599
g20
(dp600
I0
F5.5
sI1
F2.4
sI2
F3.7
sI3
F1.0
ssbsg22
g0
(g23
g2
Ntp601
Rp602
(dp603
g27
S'Iris-versicolor'
p604
sbsba(iMethods
Instance
p605
(dp606
g17
(iMethods
FeatureVector
p607
(dp608
g20
(dp609
I0
F5.8
sI1
F2.7
sI2
F3.9
sI3
F1.2
ssbsg22
g0
(g23
g2
Ntp610
Rp611
(dp612
g27
S'Iris-versicolor'
p613
sbsba(iMethods
Instance
p614
(dp615
g17
(iMethods
FeatureVector
p616
(dp617
g20
(dp618
I0
F6.0
sI1
F2.7
sI2
F5.1
sI3
F1.6
ssbsg22
g0
(g23
g2
Ntp619
Rp620
(dp621
g27
S'Iris-versicolor'
p622
sbsba(iMethods
Instance
p623
(dp624
g17
(iMethods
FeatureVector
p625
(dp626
g20
(dp627
I0
F5.4
sI1
F3.0
sI2
F4.5
sI3
F1.5
ssbsg22
g0
(g23
g2
Ntp628
Rp629
(dp630
g27
S'Iris-versicolor'
p631
sbsba(iMethods
Instance
p632
(dp633
g17
(iMethods
FeatureVector
p634
(dp635
g20
(dp636
I0
F6.7
sI1
F3.1
sI2
F4.7
sI3
F1.5
ssbsg22
g0
(g23
g2
Ntp637
Rp638
(dp639
g27
S'Iris-versicolor'
p640
sbsba(iMethods
Instance
p641
(dp642
g17
(iMethods
FeatureVector
p643
(dp644
g20
(dp645
I0
F6.3
sI1
F2.3
sI2
F4.4
sI3
F1.3
ssbsg22
g0
(g23
g2
Ntp646
Rp647
(dp648
g27
S'Iris-versicolor'
p649
sbsba(iMethods
Instance
p650
(dp651
g17
(iMethods
FeatureVector
p652
(dp653
g20
(dp654
I0
F5.6
sI1
F3.0
sI2
F4.1
sI3
F1.3
ssbsg22
g0
(g23
g2
Ntp655
Rp656
(dp657
g27
S'Iris-versicolor'
p658
sbsba(iMethods
Instance
p659
(dp660
g17
(iMethods
FeatureVector
p661
(dp662
g20
(dp663
I0
F5.5
sI1
F2.5
sI2
F4.0
sI3
F1.3
ssbsg22
g0
(g23
g2
Ntp664
Rp665
(dp666
g27
S'Iris-versicolor'
p667
sbsba(iMethods
Instance
p668
(dp669
g17
(iMethods
FeatureVector
p670
(dp671
g20
(dp672
I0
F6.1
sI1
F3.0
sI2
F4.6
sI3
F1.4
ssbsg22
g0
(g23
g2
Ntp673
Rp674
(dp675
g27
S'Iris-versicolor'
p676
sbsba(iMethods
Instance
p677
(dp678
g17
(iMethods
FeatureVector
p679
(dp680
g20
(dp681
I0
F5.8
sI1
F2.6
sI2
F4.0
sI3
F1.2
ssbsg22
g0
(g23
g2
Ntp682
Rp683
(dp684
g27
S'Iris-versicolor'
p685
sbsba(iMethods
Instance
p686
(dp687
g17
(iMethods
FeatureVector
p688
(dp689
g20
(dp690
I0
F5.0
sI1
F2.3
sI2
F3.3
sI3
F1.0
ssbsg22
g0
(g23
g2
Ntp691
Rp692
(dp693
g27
S'Iris-versicolor'
p694
sbsba(iMethods
Instance
p695
(dp696
g17
(iMethods
FeatureVector
p697
(dp698
g20
(dp699
I0
F5.6
sI1
F2.7
sI2
F4.2
sI3
F1.3
ssbsg22
g0
(g23
g2
Ntp700
Rp701
(dp702
g27
S'Iris-versicolor'
p703
sbsba(iMethods
Instance
p704
(dp705
g17
(iMethods
FeatureVector
p706
(dp707
g20
(dp708
I0
F5.7
sI1
F2.9
sI2
F4.2
sI3
F1.3
ssbsg22
g0
(g23
g2
Ntp709
Rp710
(dp711
g27
S'Iris-versicolor'
p712
sbsba(iMethods
Instance
p713
(dp714
g17
(iMethods
FeatureVector
p715
(dp716
g20
(dp717
I0
F6.2
sI1
F2.9
sI2
F4.3
sI3
F1.3
ssbsg22
g0
(g23
g2
Ntp718
Rp719
(dp720
g27
S'Iris-versicolor'
p721
sbsba(iMethods
Instance
p722
(dp723
g17
(iMethods
FeatureVector
p724
(dp725
g20
(dp726
I0
F5.1
sI1
F2.5
sI2
F3.0
sI3
F1.1
ssbsg22
g0
(g23
g2
Ntp727
Rp728
(dp729
g27
S'Iris-versicolor'
p730
sbsba(iMethods
Instance
p731
(dp732
g17
(iMethods
FeatureVector
p733
(dp734
g20
(dp735
I0
F5.7
sI1
F2.8
sI2
F4.1
sI3
F1.3
ssbsg22
g0
(g23
g2
Ntp736
Rp737
(dp738
g27
S'Iris-versicolor'
p739
sbsba(iMethods
Instance
p740
(dp741
g17
(iMethods
FeatureVector
p742
(dp743
g20
(dp744
I0
F5.8
sI1
F2.7
sI2
F5.1
sI3
F1.9
ssbsg22
g0
(g23
g2
Ntp745
Rp746
(dp747
g27
S'Iris-virginica'
p748
sbsba(iMethods
Instance
p749
(dp750
g17
(iMethods
FeatureVector
p751
(dp752
g20
(dp753
I0
F7.1
sI1
F3.0
sI2
F5.9
sI3
F2.1
ssbsg22
g0
(g23
g2
Ntp754
Rp755
(dp756
g27
S'Iris-virginica'
p757
sbsba(iMethods
Instance
p758
(dp759
g17
(iMethods
FeatureVector
p760
(dp761
g20
(dp762
I0
F6.3
sI1
F2.9
sI2
F5.6
sI3
F1.8
ssbsg22
g0
(g23
g2
Ntp763
Rp764
(dp765
g27
S'Iris-virginica'
p766
sbsba(iMethods
Instance
p767
(dp768
g17
(iMethods
FeatureVector
p769
(dp770
g20
(dp771
I0
F6.5
sI1
F3.0
sI2
F5.8
sI3
F2.2
ssbsg22
g0
(g23
g2
Ntp772
Rp773
(dp774
g27
S'Iris-virginica'
p775
sbsba(iMethods
Instance
p776
(dp777
g17
(iMethods
FeatureVector
p778
(dp779
g20
(dp780
I0
F4.9
sI1
F2.5
sI2
F4.5
sI3
F1.7
ssbsg22
g0
(g23
g2
Ntp781
Rp782
(dp783
g27
S'Iris-virginica'
p784
sbsba(iMethods
Instance
p785
(dp786
g17
(iMethods
FeatureVector
p787
(dp788
g20
(dp789
I0
F7.3
sI1
F2.9
sI2
F6.3
sI3
F1.8
ssbsg22
g0
(g23
g2
Ntp790
Rp791
(dp792
g27
S'Iris-virginica'
p793
sbsba(iMethods
Instance
p794
(dp795
g17
(iMethods
FeatureVector
p796
(dp797
g20
(dp798
I0
F6.7
sI1
F2.5
sI2
F5.8
sI3
F1.8
ssbsg22
g0
(g23
g2
Ntp799
Rp800
(dp801
g27
S'Iris-virginica'
p802
sbsba(iMethods
Instance
p803
(dp804
g17
(iMethods
FeatureVector
p805
(dp806
g20
(dp807
I0
F7.2
sI1
F3.6
sI2
F6.1
sI3
F2.5
ssbsg22
g0
(g23
g2
Ntp808
Rp809
(dp810
g27
S'Iris-virginica'
p811
sbsba(iMethods
Instance
p812
(dp813
g17
(iMethods
FeatureVector
p814
(dp815
g20
(dp816
I0
F6.4
sI1
F2.7
sI2
F5.3
sI3
F1.9
ssbsg22
g0
(g23
g2
Ntp817
Rp818
(dp819
g27
S'Iris-virginica'
p820
sbsba(iMethods
Instance
p821
(dp822
g17
(iMethods
FeatureVector
p823
(dp824
g20
(dp825
I0
F6.8
sI1
F3.0
sI2
F5.5
sI3
F2.1
ssbsg22
g0
(g23
g2
Ntp826
Rp827
(dp828
g27
S'Iris-virginica'
p829
sbsba(iMethods
Instance
p830
(dp831
g17
(iMethods
FeatureVector
p832
(dp833
g20
(dp834
I0
F5.7
sI1
F2.5
sI2
F5.0
sI3
F2.0
ssbsg22
g0
(g23
g2
Ntp835
Rp836
(dp837
g27
S'Iris-virginica'
p838
sbsba(iMethods
Instance
p839
(dp840
g17
(iMethods
FeatureVector
p841
(dp842
g20
(dp843
I0
F5.8
sI1
F2.8
sI2
F5.1
sI3
F2.4
ssbsg22
g0
(g23
g2
Ntp844
Rp845
(dp846
g27
S'Iris-virginica'
p847
sbsba(iMethods
Instance
p848
(dp849
g17
(iMethods
FeatureVector
p850
(dp851
g20
(dp852
I0
F6.5
sI1
F3.0
sI2
F5.5
sI3
F1.8
ssbsg22
g0
(g23
g2
Ntp853
Rp854
(dp855
g27
S'Iris-virginica'
p856
sbsba(iMethods
Instance
p857
(dp858
g17
(iMethods
FeatureVector
p859
(dp860
g20
(dp861
I0
F7.7
sI1
F3.8
sI2
F6.7
sI3
F2.2
ssbsg22
g0
(g23
g2
Ntp862
Rp863
(dp864
g27
S'Iris-virginica'
p865
sbsba(iMethods
Instance
p866
(dp867
g17
(iMethods
FeatureVector
p868
(dp869
g20
(dp870
I0
F7.7
sI1
F2.6
sI2
F6.9
sI3
F2.3
ssbsg22
g0
(g23
g2
Ntp871
Rp872
(dp873
g27
S'Iris-virginica'
p874
sbsba(iMethods
Instance
p875
(dp876
g17
(iMethods
FeatureVector
p877
(dp878
g20
(dp879
I0
F6.0
sI1
F2.2
sI2
F5.0
sI3
F1.5
ssbsg22
g0
(g23
g2
Ntp880
Rp881
(dp882
g27
S'Iris-virginica'
p883
sbsba(iMethods
Instance
p884
(dp885
g17
(iMethods
FeatureVector
p886
(dp887
g20
(dp888
I0
F5.6
sI1
F2.8
sI2
F4.9
sI3
F2.0
ssbsg22
g0
(g23
g2
Ntp889
Rp890
(dp891
g27
S'Iris-virginica'
p892
sbsba(iMethods
Instance
p893
(dp894
g17
(iMethods
FeatureVector
p895
(dp896
g20
(dp897
I0
F7.7
sI1
F2.8
sI2
F6.7
sI3
F2.0
ssbsg22
g0
(g23
g2
Ntp898
Rp899
(dp900
g27
S'Iris-virginica'
p901
sbsba(iMethods
Instance
p902
(dp903
g17
(iMethods
FeatureVector
p904
(dp905
g20
(dp906
I0
F6.3
sI1
F2.7
sI2
F4.9
sI3
F1.8
ssbsg22
g0
(g23
g2
Ntp907
Rp908
(dp909
g27
S'Iris-virginica'
p910
sbsba(iMethods
Instance
p911
(dp912
g17
(iMethods
FeatureVector
p913
(dp914
g20
(dp915
I0
F6.7
sI1
F3.3
sI2
F5.7
sI3
F2.1
ssbsg22
g0
(g23
g2
Ntp916
Rp917
(dp918
g27
S'Iris-virginica'
p919
sbsba(iMethods
Instance
p920
(dp921
g17
(iMethods
FeatureVector
p922
(dp923
g20
(dp924
I0
F6.2
sI1
F2.8
sI2
F4.8
sI3
F1.8
ssbsg22
g0
(g23
g2
Ntp925
Rp926
(dp927
g27
S'Iris-virginica'
p928
sbsba(iMethods
Instance
p929
(dp930
g17
(iMethods
FeatureVector
p931
(dp932
g20
(dp933
I0
F6.1
sI1
F3.0
sI2
F4.9
sI3
F1.8
ssbsg22
g0
(g23
g2
Ntp934
Rp935
(dp936
g27
S'Iris-virginica'
p937
sbsba(iMethods
Instance
p938
(dp939
g17
(iMethods
FeatureVector
p940
(dp941
g20
(dp942
I0
F6.4
sI1
F2.8
sI2
F5.6
sI3
F2.1
ssbsg22
g0
(g23
g2
Ntp943
Rp944
(dp945
g27
S'Iris-virginica'
p946
sbsba(iMethods
Instance
p947
(dp948
g17
(iMethods
FeatureVector
p949
(dp950
g20
(dp951
I0
F7.2
sI1
F3.0
sI2
F5.8
sI3
F1.6
ssbsg22
g0
(g23
g2
Ntp952
Rp953
(dp954
g27
S'Iris-virginica'
p955
sbsba(iMethods
Instance
p956
(dp957
g17
(iMethods
FeatureVector
p958
(dp959
g20
(dp960
I0
F7.9
sI1
F3.8
sI2
F6.4
sI3
F2.0
ssbsg22
g0
(g23
g2
Ntp961
Rp962
(dp963
g27
S'Iris-virginica'
p964
sbsba(iMethods
Instance
p965
(dp966
g17
(iMethods
FeatureVector
p967
(dp968
g20
(dp969
I0
F6.4
sI1
F2.8
sI2
F5.6
sI3
F2.2
ssbsg22
g0
(g23
g2
Ntp970
Rp971
(dp972
g27
S'Iris-virginica'
p973
sbsba(iMethods
Instance
p974
(dp975
g17
(iMethods
FeatureVector
p976
(dp977
g20
(dp978
I0
F6.3
sI1
F2.8
sI2
F5.1
sI3
F1.5
ssbsg22
g0
(g23
g2
Ntp979
Rp980
(dp981
g27
S'Iris-virginica'
p982
sbsba(iMethods
Instance
p983
(dp984
g17
(iMethods
FeatureVector
p985
(dp986
g20
(dp987
I0
F6.1
sI1
F2.6
sI2
F5.6
sI3
F1.4
ssbsg22
g0
(g23
g2
Ntp988
Rp989
(dp990
g27
S'Iris-virginica'
p991
sbsba(iMethods
Instance
p992
(dp993
g17
(iMethods
FeatureVector
p994
(dp995
g20
(dp996
I0
F6.3
sI1
F3.4
sI2
F5.6
sI3
F2.4
ssbsg22
g0
(g23
g2
Ntp997
Rp998
(dp999
g27
S'Iris-virginica'
p1000
sbsba(iMethods
Instance
p1001
(dp1002
g17
(iMethods
FeatureVector
p1003
(dp1004
g20
(dp1005
I0
F6.4
sI1
F3.1
sI2
F5.5
sI3
F1.8
ssbsg22
g0
(g23
g2
Ntp1006
Rp1007
(dp1008
g27
S'Iris-virginica'
p1009
sbsba(iMethods
Instance
p1010
(dp1011
g17
(iMethods
FeatureVector
p1012
(dp1013
g20
(dp1014
I0
F6.0
sI1
F3.0
sI2
F4.8
sI3
F1.8
ssbsg22
g0
(g23
g2
Ntp1015
Rp1016
(dp1017
g27
S'Iris-virginica'
p1018
sbsba(iMethods
Instance
p1019
(dp1020
g17
(iMethods
FeatureVector
p1021
(dp1022
g20
(dp1023
I0
F6.9
sI1
F3.1
sI2
F5.4
sI3
F2.1
ssbsg22
g0
(g23
g2
Ntp1024
Rp1025
(dp1026
g27
S'Iris-virginica'
p1027
sbsba(iMethods
Instance
p1028
(dp1029
g17
(iMethods
FeatureVector
p1030
(dp1031
g20
(dp1032
I0
F6.9
sI1
F3.1
sI2
F5.1
sI3
F2.3
ssbsg22
g0
(g23
g2
Ntp1033
Rp1034
(dp1035
g27
S'Iris-virginica'
p1036
sbsba(iMethods
Instance
p1037
(dp1038
g17
(iMethods
FeatureVector
p1039
(dp1040
g20
(dp1041
I0
F5.8
sI1
F2.7
sI2
F5.1
sI3
F1.9
ssbsg22
g0
(g23
g2
Ntp1042
Rp1043
(dp1044
g27
S'Iris-virginica'
p1045
sbsba(iMethods
Instance
p1046
(dp1047
g17
(iMethods
FeatureVector
p1048
(dp1049
g20
(dp1050
I0
F6.8
sI1
F3.2
sI2
F5.9
sI3
F2.3
ssbsg22
g0
(g23
g2
Ntp1051
Rp1052
(dp1053
g27
S'Iris-virginica'
p1054
sbsba(iMethods
Instance
p1055
(dp1056
g17
(iMethods
FeatureVector
p1057
(dp1058
g20
(dp1059
I0
F6.7
sI1
F3.3
sI2
F5.7
sI3
F2.5
ssbsg22
g0
(g23
g2
Ntp1060
Rp1061
(dp1062
g27
S'Iris-virginica'
p1063
sbsba(iMethods
Instance
p1064
(dp1065
g17
(iMethods
FeatureVector
p1066
(dp1067
g20
(dp1068
I0
F6.3
sI1
F2.5
sI2
F5.0
sI3
F1.9
ssbsg22
g0
(g23
g2
Ntp1069
Rp1070
(dp1071
g27
S'Iris-virginica'
p1072
sbsba(iMethods
Instance
p1073
(dp1074
g17
(iMethods
FeatureVector
p1075
(dp1076
g20
(dp1077
I0
F6.5
sI1
F3.0
sI2
F5.2
sI3
F2.0
ssbsg22
g0
(g23
g2
Ntp1078
Rp1079
(dp1080
g27
S'Iris-virginica'
p1081
sbsba(iMethods
Instance
p1082
(dp1083
g17
(iMethods
FeatureVector
p1084
(dp1085
g20
(dp1086
I0
F6.2
sI1
F3.4
sI2
F5.4
sI3
F2.3
ssbsg22
g0
(g23
g2
Ntp1087
Rp1088
(dp1089
g27
S'Iris-virginica'
p1090
sbsba(iMethods
Instance
p1091
(dp1092
g17
(iMethods
FeatureVector
p1093
(dp1094
g20
(dp1095
I0
F5.9
sI1
F3.0
sI2
F5.1
sI3
F1.8
ssbsg22
g0
(g23
g2
Ntp1096
Rp1097
(dp1098
g27
S'Iris-virginica'
p1099
sbsbasS'root'
p1100
(dp1101
I3
(dp1102
F0.5
cnumpy.core.multiarray
scalar
p1103
(cnumpy
dtype
p1104
(S'S11'
p1105
I0
I1
tp1106
Rp1107
(I3
S'|'
p1108
NNNI11
I1
I0
tp1109
bS'Iris-setosa'
p1110
tp1111
Rp1112
sF1.5
(dp1113
I2
(dp1114
F1.5
g1103
(g1104
(S'S11'
p1115
I0
I1
tp1116
Rp1117
(I3
S'|'
p1118
NNNI11
I1
I0
tp1119
bS'Iris-setosa'
p1120
tp1121
Rp1122
sF1.0
g1103
(g1104
(S'S11'
p1123
I0
I1
tp1124
Rp1125
(I3
S'|'
p1126
NNNI11
I1
I0
tp1127
bS'Iris-setosa'
p1128
tp1129
Rp1130
sF3.0
g1103
(g1104
(S'S15'
p1131
I0
I1
tp1132
Rp1133
(I3
S'|'
p1134
NNNI15
I1
I0
tp1135
bS'Iris-versicolor'
p1136
tp1137
Rp1138
sF4.0
g1103
(g1104
(S'S15'
p1139
I0
I1
tp1140
Rp1141
(I3
S'|'
p1142
NNNI15
I1
I0
tp1143
bS'Iris-versicolor'
p1144
tp1145
Rp1146
sF5.0
(dp1147
I0
(dp1148
F5.5
(dp1149
I1
(dp1150
F3.5
g1103
(g1104
(S'S11'
p1151
I0
I1
tp1152
Rp1153
(I3
S'|'
p1154
NNNI11
I1
I0
tp1155
bS'Iris-setosa'
p1156
tp1157
Rp1158
sF3.6
g55
sF3.0
g757
sF2.9
g442
sF3.2
g37
sF3.7
g1103
(g1104
(S'S11'
p1159
I0
I1
tp1160
Rp1161
(I3
S'|'
p1162
NNNI11
I1
I0
tp1163
bS'Iris-setosa'
p1164
tp1165
Rp1166
sF2.7
g451
sF3.4
g64
sF3.9
g1103
(g1104
(S'S11'
p1167
I0
I1
tp1168
Rp1169
(I3
S'|'
p1170
NNNI11
I1
I0
tp1171
bS'Iris-setosa'
p1172
tp1173
Rp1174
sF2.2
g469
sF2.4
g1103
(g1104
(S'S15'
p1175
I0
I1
tp1176
Rp1177
(I3
S'|'
p1178
NNNI15
I1
I0
tp1179
bS'Iris-versicolor'
p1180
tp1181
Rp1182
sF2.8
g847
sF2.6
g874
sF3.1
g46
sF4.2
g1103
(g1104
(S'S11'
p1183
I0
I1
tp1184
Rp1185
(I3
S'|'
p1186
NNNI11
I1
I0
tp1187
bS'Iris-setosa'
p1188
tp1189
Rp1190
sF4.1
g1103
(g1104
(S'S11'
p1191
I0
I1
tp1192
Rp1193
(I3
S'|'
p1194
NNNI11
I1
I0
tp1195
bS'Iris-setosa'
p1196
tp1197
Rp1198
sF2.3
g406
sF3.8
g154
sF3.3
g919
sF4.0
g1103
(g1104
(S'S11'
p1199
I0
I1
tp1200
Rp1201
(I3
S'|'
p1202
NNNI11
I1
I0
tp1203
bS'Iris-setosa'
p1204
tp1205
Rp1206
sF2.5
g784
sssF6.5
g775
sF4.8
g1103
(g1104
(S'S11'
p1207
I0
I1
tp1208
Rp1209
(I3
S'|'
p1210
NNNI11
I1
I0
tp1211
bS'Iris-setosa'
p1212
tp1213
Rp1214
sF5.0
g55
sF6.0
g469
sF6.6
g1103
(g1104
(S'S15'
p1215
I0
I1
tp1216
Rp1217
(I3
S'|'
p1218
NNNI15
I1
I0
tp1219
bS'Iris-versicolor'
p1220
tp1221
Rp1222
sF4.6
g1103
(g1104
(S'S11'
p1223
I0
I1
tp1224
Rp1225
(I3
S'|'
p1226
NNNI11
I1
I0
tp1227
bS'Iris-setosa'
p1228
tp1229
Rp1230
sF6.1
g478
sF4.3
g1103
(g1104
(S'S11'
p1231
I0
I1
tp1232
Rp1233
(I3
S'|'
p1234
NNNI11
I1
I0
tp1235
bS'Iris-setosa'
p1236
tp1237
Rp1238
sF5.1
g145
sF4.7
g1103
(g1104
(S'S11'
p1239
I0
I1
tp1240
Rp1241
(I3
S'|'
p1242
NNNI11
I1
I0
tp1243
bS'Iris-setosa'
p1244
tp1245
Rp1246
sF5.2
g217
sF6.3
g766
sF6.2
g928
sF5.7
g595
sF7.9
g1103
(g1104
(S'S14'
p1247
I0
I1
tp1248
Rp1249
(I3
S'|'
p1250
NNNI14
I1
I0
tp1251
bS'Iris-virginica'
p1252
tp1253
Rp1254
sF7.7
g1103
(g1104
(S'S14'
p1255
I0
I1
tp1256
Rp1257
(I3
S'|'
p1258
NNNI14
I1
I0
tp1259
bS'Iris-virginica'
p1260
tp1261
Rp1262
sF5.3
g1103
(g1104
(S'S11'
p1263
I0
I1
tp1264
Rp1265
(I3
S'|'
p1266
NNNI11
I1
I0
tp1267
bS'Iris-setosa'
p1268
tp1269
Rp1270
sF6.7
g802
sF4.4
g1103
(g1104
(S'S11'
p1271
I0
I1
tp1272
Rp1273
(I3
S'|'
p1274
NNNI11
I1
I0
tp1275
bS'Iris-setosa'
p1276
tp1277
Rp1278
sF4.9
g28
sF7.3
g1103
(g1104
(S'S14'
p1279
I0
I1
tp1280
Rp1281
(I3
S'|'
p1282
NNNI14
I1
I0
tp1283
bS'Iris-virginica'
p1284
tp1285
Rp1286
sF6.8
g829
sF6.4
g820
sF5.4
g136
sF5.6
g487
sF6.9
g1027
sF5.9
g1099
sF7.2
g1103
(g1104
(S'S14'
p1287
I0
I1
tp1288
Rp1289
(I3
S'|'
p1290
NNNI14
I1
I0
tp1291
bS'Iris-virginica'
p1292
tp1293
Rp1294
sF7.1
g1103
(g1104
(S'S14'
p1295
I0
I1
tp1296
Rp1297
(I3
S'|'
p1298
NNNI14
I1
I0
tp1299
bS'Iris-virginica'
p1300
tp1301
Rp1302
sF5.8
g748
sF4.5
g1103
(g1104
(S'S11'
p1303
I0
I1
tp1304
Rp1305
(I3
S'|'
p1306
NNNI11
I1
I0
tp1307
bS'Iris-setosa'
p1308
tp1309
Rp1310
sssF4.5
g388
sF1.1
g1103
(g1104
(S'S11'
p1311
I0
I1
tp1312
Rp1313
(I3
S'|'
p1314
NNNI11
I1
I0
tp1315
bS'Iris-setosa'
p1316
tp1317
Rp1318
sF3.3
g1103
(g1104
(S'S15'
p1319
I0
I1
tp1320
Rp1321
(I3
S'|'
p1322
NNNI15
I1
I0
tp1323
bS'Iris-versicolor'
p1324
tp1325
Rp1326
sF1.9
g1103
(g1104
(S'S11'
p1327
I0
I1
tp1328
Rp1329
(I3
S'|'
p1330
NNNI11
I1
I0
tp1331
bS'Iris-setosa'
p1332
tp1333
Rp1334
sF4.6
g1103
(g1104
(S'S15'
p1335
I0
I1
tp1336
Rp1337
(I3
S'|'
p1338
NNNI15
I1
I0
tp1339
bS'Iris-versicolor'
p1340
tp1341
Rp1342
sF4.9
g892
sF4.1
g1103
(g1104
(S'S15'
p1343
I0
I1
tp1344
Rp1345
(I3
S'|'
p1346
NNNI15
I1
I0
tp1347
bS'Iris-versicolor'
p1348
tp1349
Rp1350
sF6.7
g1103
(g1104
(S'S14'
p1351
I0
I1
tp1352
Rp1353
(I3
S'|'
p1354
NNNI14
I1
I0
tp1355
bS'Iris-virginica'
p1356
tp1357
Rp1358
sF4.7
g1103
(g1104
(S'S15'
p1359
I0
I1
tp1360
Rp1361
(I3
S'|'
p1362
NNNI15
I1
I0
tp1363
bS'Iris-versicolor'
p1364
tp1365
Rp1366
sF4.3
g1103
(g1104
(S'S15'
p1367
I0
I1
tp1368
Rp1369
(I3
S'|'
p1370
NNNI15
I1
I0
tp1371
bS'Iris-versicolor'
p1372
tp1373
Rp1374
sF5.7
g1103
(g1104
(S'S14'
p1375
I0
I1
tp1376
Rp1377
(I3
S'|'
p1378
NNNI14
I1
I0
tp1379
bS'Iris-virginica'
p1380
tp1381
Rp1382
sF5.4
g1103
(g1104
(S'S14'
p1383
I0
I1
tp1384
Rp1385
(I3
S'|'
p1386
NNNI14
I1
I0
tp1387
bS'Iris-virginica'
p1388
tp1389
Rp1390
sF4.8
g928
sF4.2
g1103
(g1104
(S'S15'
p1391
I0
I1
tp1392
Rp1393
(I3
S'|'
p1394
NNNI15
I1
I0
tp1395
bS'Iris-versicolor'
p1396
tp1397
Rp1398
sF4.4
g1103
(g1104
(S'S15'
p1399
I0
I1
tp1400
Rp1401
(I3
S'|'
p1402
NNNI15
I1
I0
tp1403
bS'Iris-versicolor'
p1404
tp1405
Rp1406
sF6.3
g1103
(g1104
(S'S14'
p1407
I0
I1
tp1408
Rp1409
(I3
S'|'
p1410
NNNI14
I1
I0
tp1411
bS'Iris-virginica'
p1412
tp1413
Rp1414
sF3.9
g1103
(g1104
(S'S15'
p1415
I0
I1
tp1416
Rp1417
(I3
S'|'
p1418
NNNI15
I1
I0
tp1419
bS'Iris-versicolor'
p1420
tp1421
Rp1422
sF6.9
g1103
(g1104
(S'S14'
p1423
I0
I1
tp1424
Rp1425
(I3
S'|'
p1426
NNNI14
I1
I0
tp1427
bS'Iris-virginica'
p1428
tp1429
Rp1430
sF5.1
g748
sF1.7
g1103
(g1104
(S'S11'
p1431
I0
I1
tp1432
Rp1433
(I3
S'|'
p1434
NNNI11
I1
I0
tp1435
bS'Iris-setosa'
p1436
tp1437
Rp1438
sF6.4
g1103
(g1104
(S'S14'
p1439
I0
I1
tp1440
Rp1441
(I3
S'|'
p1442
NNNI14
I1
I0
tp1443
bS'Iris-virginica'
p1444
tp1445
Rp1446
sF5.6
g1103
(g1104
(S'S14'
p1447
I0
I1
tp1448
Rp1449
(I3
S'|'
p1450
NNNI14
I1
I0
tp1451
bS'Iris-virginica'
p1452
tp1453
Rp1454
sF1.4
g1103
(g1104
(S'S11'
p1455
I0
I1
tp1456
Rp1457
(I3
S'|'
p1458
NNNI11
I1
I0
tp1459
bS'Iris-setosa'
p1460
tp1461
Rp1462
sF6.1
g1103
(g1104
(S'S14'
p1463
I0
I1
tp1464
Rp1465
(I3
S'|'
p1466
NNNI14
I1
I0
tp1467
bS'Iris-virginica'
p1468
tp1469
Rp1470
sF3.5
g1103
(g1104
(S'S15'
p1471
I0
I1
tp1472
Rp1473
(I3
S'|'
p1474
NNNI15
I1
I0
tp1475
bS'Iris-versicolor'
p1476
tp1477
Rp1478
sF1.3
g1103
(g1104
(S'S11'
p1479
I0
I1
tp1480
Rp1481
(I3
S'|'
p1482
NNNI11
I1
I0
tp1483
bS'Iris-setosa'
p1484
tp1485
Rp1486
sF5.9
g1103
(g1104
(S'S14'
p1487
I0
I1
tp1488
Rp1489
(I3
S'|'
p1490
NNNI14
I1
I0
tp1491
bS'Iris-virginica'
p1492
tp1493
Rp1494
sF3.7
g1103
(g1104
(S'S15'
p1495
I0
I1
tp1496
Rp1497
(I3
S'|'
p1498
NNNI15
I1
I0
tp1499
bS'Iris-versicolor'
p1500
tp1501
Rp1502
sF5.2
g1103
(g1104
(S'S14'
p1503
I0
I1
tp1504
Rp1505
(I3
S'|'
p1506
NNNI14
I1
I0
tp1507
bS'Iris-virginica'
p1508
tp1509
Rp1510
sF1.6
g1103
(g1104
(S'S11'
p1511
I0
I1
tp1512
Rp1513
(I3
S'|'
p1514
NNNI11
I1
I0
tp1515
bS'Iris-setosa'
p1516
tp1517
Rp1518
sF1.2
g1103
(g1104
(S'S11'
p1519
I0
I1
tp1520
Rp1521
(I3
S'|'
p1522
NNNI11
I1
I0
tp1523
bS'Iris-setosa'
p1524
tp1525
Rp1526
sF3.6
g1103
(g1104
(S'S15'
p1527
I0
I1
tp1528
Rp1529
(I3
S'|'
p1530
NNNI15
I1
I0
tp1531
bS'Iris-versicolor'
p1532
tp1533
Rp1534
sF5.3
g1103
(g1104
(S'S14'
p1535
I0
I1
tp1536
Rp1537
(I3
S'|'
p1538
NNNI14
I1
I0
tp1539
bS'Iris-virginica'
p1540
tp1541
Rp1542
sF5.8
g1103
(g1104
(S'S14'
p1543
I0
I1
tp1544
Rp1545
(I3
S'|'
p1546
NNNI14
I1
I0
tp1547
bS'Iris-virginica'
p1548
tp1549
Rp1550
sF5.5
g1103
(g1104
(S'S14'
p1551
I0
I1
tp1552
Rp1553
(I3
S'|'
p1554
NNNI14
I1
I0
tp1555
bS'Iris-virginica'
p1556
tp1557
Rp1558
sssF2.0
g1103
(g1104
(S'S14'
p1559
I0
I1
tp1560
Rp1561
(I3
S'|'
p1562
NNNI14
I1
I0
tp1563
bS'Iris-virginica'
p1564
tp1565
Rp1566
sF0.6
g1103
(g1104
(S'S11'
p1567
I0
I1
tp1568
Rp1569
(I3
S'|'
p1570
NNNI11
I1
I0
tp1571
bS'Iris-setosa'
p1572
tp1573
Rp1574
sF2.5
g1103
(g1104
(S'S14'
p1575
I0
I1
tp1576
Rp1577
(I3
S'|'
p1578
NNNI14
I1
I0
tp1579
bS'Iris-virginica'
p1580
tp1581
Rp1582
sF1.0
g1103
(g1104
(S'S15'
p1583
I0
I1
tp1584
Rp1585
(I3
S'|'
p1586
NNNI15
I1
I0
tp1587
bS'Iris-versicolor'
p1588
tp1589
Rp1590
sF1.4
g451
sF1.9
g1103
(g1104
(S'S14'
p1591
I0
I1
tp1592
Rp1593
(I3
S'|'
p1594
NNNI14
I1
I0
tp1595
bS'Iris-virginica'
p1596
tp1597
Rp1598
sF2.3
g1103
(g1104
(S'S14'
p1599
I0
I1
tp1600
Rp1601
(I3
S'|'
p1602
NNNI14
I1
I0
tp1603
bS'Iris-virginica'
p1604
tp1605
Rp1606
sF0.2
g1103
(g1104
(S'S11'
p1607
I0
I1
tp1608
Rp1609
(I3
S'|'
p1610
NNNI11
I1
I0
tp1611
bS'Iris-setosa'
p1612
tp1613
Rp1614
sF2.1
g1103
(g1104
(S'S14'
p1615
I0
I1
tp1616
Rp1617
(I3
S'|'
p1618
NNNI14
I1
I0
tp1619
bS'Iris-virginica'
p1620
tp1621
Rp1622
sF0.4
g1103
(g1104
(S'S11'
p1623
I0
I1
tp1624
Rp1625
(I3
S'|'
p1626
NNNI11
I1
I0
tp1627
bS'Iris-setosa'
p1628
tp1629
Rp1630
sF2.4
g1103
(g1104
(S'S14'
p1631
I0
I1
tp1632
Rp1633
(I3
S'|'
p1634
NNNI14
I1
I0
tp1635
bS'Iris-virginica'
p1636
tp1637
Rp1638
sF0.3
g1103
(g1104
(S'S11'
p1639
I0
I1
tp1640
Rp1641
(I3
S'|'
p1642
NNNI11
I1
I0
tp1643
bS'Iris-setosa'
p1644
tp1645
Rp1646
sF1.6
g424
sF1.2
g1103
(g1104
(S'S15'
p1647
I0
I1
tp1648
Rp1649
(I3
S'|'
p1650
NNNI15
I1
I0
tp1651
bS'Iris-versicolor'
p1652
tp1653
Rp1654
sF1.3
g1103
(g1104
(S'S15'
p1655
I0
I1
tp1656
Rp1657
(I3
S'|'
p1658
NNNI15
I1
I0
tp1659
bS'Iris-versicolor'
p1660
tp1661
Rp1662
sF1.1
g1103
(g1104
(S'S15'
p1663
I0
I1
tp1664
Rp1665
(I3
S'|'
p1666
NNNI15
I1
I0
tp1667
bS'Iris-versicolor'
p1668
tp1669
Rp1670
sF0.1
g1103
(g1104
(S'S11'
p1671
I0
I1
tp1672
Rp1673
(I3
S'|'
p1674
NNNI11
I1
I0
tp1675
bS'Iris-setosa'
p1676
tp1677
Rp1678
sF1.8
g1103
(g1104
(S'S14'
p1679
I0
I1
tp1680
Rp1681
(I3
S'|'
p1682
NNNI14
I1
I0
tp1683
bS'Iris-virginica'
p1684
tp1685
Rp1686
sF1.7
g784
sF2.2
g1103
(g1104
(S'S14'
p1687
I0
I1
tp1688
Rp1689
(I3
S'|'
p1690
NNNI14
I1
I0
tp1691
bS'Iris-virginica'
p1692
tp1693
Rp1694
sssb.