ccopy_reg
_reconstructor
p0
(cDecisionTree
DecisionTree
p1
c__builtin__
object
p2
Ntp3
Rp4
(dp5
S'full_labels'
p6
(lp7
sS'distinct_labels'
p8
(dp9
sS'root'
p10
(iNode
Node
p11
(dp12
S'branches'
p13
(lp14
(iNode
Node
p15
(dp16
g13
(lp17
(iNode
Node
p18
(dp19
g13
(lp20
(iNode
Node
p21
(dp22
g13
(lp23
(iNode
Node
p24
(dp25
g13
(lp26
cnumpy.core.multiarray
scalar
p27
(cnumpy
dtype
p28
(S'S10'
p29
I0
I1
tp30
Rp31
(I3
S'|'
p32
NNNI10
I1
I0
tp33
bS'republican'
p34
tp35
Rp36
ag27
(g28
(S'S8'
p37
I0
I1
tp38
Rp39
(I3
S'|'
p40
NNNI8
I1
I0
tp41
bS'democrat'
p42
tp43
Rp44
asS'attr_label'
p45
I5
sS'examples'
p46
(lp47
(iMethods
Instance
p48
(dp49
S'_feature_vector'
p50
(iMethods
FeatureVector
p51
(dp52
S'feature_vec'
p53
(dp54
I0
F2.0
sI1
F0.0
sI2
F0.0
sI3
F0.0
sI4
F2.0
sI5
F2.0
sI6
F2.0
sI7
F0.0
sI8
F0.0
sI9
F2.0
sI10
F2.0
sI11
F0.0
sI12
F0.0
sI13
F2.0
sI14
F0.0
sI15
F2.0
ssbsS'_label'
p55
g0
(cMethods
ClassificationLabel
p56
g2
Ntp57
Rp58
(dp59
S'label_str'
p60
S'democrat'
p61
sbsba(iMethods
Instance
p62
(dp63
g50
(iMethods
FeatureVector
p64
(dp65
g53
(dp66
I0
F0.0
sI1
F1.0
sI2
F0.0
sI3
F0.0
sI4
F0.0
sI5
F2.0
sI6
F2.0
sI7
F2.0
sI8
F2.0
sI9
F2.0
sI10
F0.0
sI11
F0.0
sI12
F0.0
sI13
F2.0
sI14
F0.0
sI15
F1.0
ssbsg55
g0
(g56
g2
Ntp67
Rp68
(dp69
g60
S'democrat'
p70
sbsba(iMethods
Instance
p71
(dp72
g50
(iMethods
FeatureVector
p73
(dp74
g53
(dp75
I0
F2.0
sI1
F0.0
sI2
F0.0
sI3
F0.0
sI4
F0.0
sI5
F0.0
sI6
F2.0
sI7
F2.0
sI8
F2.0
sI9
F2.0
sI10
F0.0
sI11
F0.0
sI12
F0.0
sI13
F2.0
sI14
F0.0
sI15
F2.0
ssbsg55
g0
(g56
g2
Ntp76
Rp77
(dp78
g60
S'republican'
p79
sbsbasbag27
(g28
(S'S8'
p80
I0
I1
tp81
Rp82
(I3
S'|'
p83
NNNI8
I1
I0
tp84
bS'democrat'
p85
tp86
Rp87
ag27
(g28
(S'S8'
p88
I0
I1
tp89
Rp90
(I3
S'|'
p91
NNNI8
I1
I0
tp92
bS'democrat'
p93
tp94
Rp95
asg45
I14
sg46
(lp96
g48
a(iMethods
Instance
p97
(dp98
g50
(iMethods
FeatureVector
p99
(dp100
g53
(dp101
I0
F2.0
sI1
F0.0
sI2
F0.0
sI3
F0.0
sI4
F2.0
sI5
F2.0
sI6
F1.0
sI7
F0.0
sI8
F1.0
sI9
F0.0
sI10
F0.0
sI11
F0.0
sI12
F0.0
sI13
F2.0
sI14
F1.0
sI15
F0.0
ssbsg55
g0
(g56
g2
Ntp102
Rp103
(dp104
g60
S'democrat'
p105
sbsba(iMethods
Instance
p106
(dp107
g50
(iMethods
FeatureVector
p108
(dp109
g53
(dp110
I0
F1.0
sI1
F2.0
sI2
F0.0
sI3
F0.0
sI4
F0.0
sI5
F0.0
sI6
F2.0
sI7
F2.0
sI8
F2.0
sI9
F2.0
sI10
F2.0
sI11
F0.0
sI12
F0.0
sI13
F2.0
sI14
F2.0
sI15
F2.0
ssbsg55
g0
(g56
g2
Ntp111
Rp112
(dp113
g60
S'democrat'
p114
sbsbag62
a(iMethods
Instance
p115
(dp116
g50
(iMethods
FeatureVector
p117
(dp118
g53
(dp119
I0
F0.0
sI1
F0.0
sI2
F0.0
sI3
F0.0
sI4
F0.0
sI5
F2.0
sI6
F2.0
sI7
F2.0
sI8
F2.0
sI9
F0.0
sI10
F2.0
sI11
F0.0
sI12
F0.0
sI13
F2.0
sI14
F2.0
sI15
F2.0
ssbsg55
g0
(g56
g2
Ntp120
Rp121
(dp122
g60
S'democrat'
p123
sbsba(iMethods
Instance
p124
(dp125
g50
(iMethods
FeatureVector
p126
(dp127
g53
(dp128
I0
F2.0
sI1
F2.0
sI2
F0.0
sI3
F0.0
sI4
F0.0
sI5
F0.0
sI6
F2.0
sI7
F2.0
sI8
F1.0
sI9
F0.0
sI10
F2.0
sI11
F0.0
sI12
F0.0
sI13
F0.0
sI14
F2.0
sI15
F1.0
ssbsg55
g0
(g56
g2
Ntp129
Rp130
(dp131
g60
S'democrat'
p132
sbsbag71
a(iMethods
Instance
p133
(dp134
g50
(iMethods
FeatureVector
p135
(dp136
g53
(dp137
I0
F0.0
sI1
F2.0
sI2
F0.0
sI3
F0.0
sI4
F0.0
sI5
F0.0
sI6
F2.0
sI7
F2.0
sI8
F2.0
sI9
F2.0
sI10
F2.0
sI11
F0.0
sI12
F0.0
sI13
F0.0
sI14
F2.0
sI15
F2.0
ssbsg55
g0
(g56
g2
Ntp138
Rp139
(dp140
g60
S'democrat'
p141
sbsba(iMethods
Instance
p142
(dp143
g50
(iMethods
FeatureVector
p144
(dp145
g53
(dp146
I0
F2.0
sI1
F0.0
sI2
F0.0
sI3
F0.0
sI4
F0.0
sI5
F2.0
sI6
F2.0
sI7
F2.0
sI8
F2.0
sI9
F2.0
sI10
F0.0
sI11
F0.0
sI12
F0.0
sI13
F2.0
sI14
F2.0
sI15
F2.0
ssbsg55
g0
(g56
g2
Ntp147
Rp148
(dp149
g60
S'democrat'
p150
sbsba(iMethods
Instance
p151
(dp152
g50
(iMethods
FeatureVector
p153
(dp154
g53
(dp155
I0
F2.0
sI1
F0.0
sI2
F0.0
sI3
F0.0
sI4
F0.0
sI5
F0.0
sI6
F2.0
sI7
F2.0
sI8
F2.0
sI9
F2.0
sI10
F0.0
sI11
F0.0
sI12
F0.0
sI13
F0.0
sI14
F2.0
sI15
F2.0
ssbsg55
g0
(g56
g2
Ntp156
Rp157
(dp158
g60
S'democrat'
p159
sbsbasbag27
(g28
(S'S10'
p160
I0
I1
tp161
Rp162
(I3
S'|'
p163
NNNI10
I1
I0
tp164
bS'republican'
p165
tp166
Rp167
ag27
(g28
(S'S8'
p168
I0
I1
tp169
Rp170
(I3
S'|'
p171
NNNI8
I1
I0
tp172
bS'democrat'
p173
tp174
Rp175
asg45
I11
sg46
(lp176
g48
a(iMethods
Instance
p177
(dp178
g50
(iMethods
FeatureVector
p179
(dp180
g53
(dp181
I0
F2.0
sI1
F0.0
sI2
F0.0
sI3
F0.0
sI4
F2.0
sI5
F2.0
sI6
F0.0
sI7
F0.0
sI8
F0.0
sI9
F0.0
sI10
F2.0
sI11
F2.0
sI12
F0.0
sI13
F2.0
sI14
F0.0
sI15
F2.0
ssbsg55
g0
(g56
g2
Ntp182
Rp183
(dp184
g60
S'democrat'
p185
sbsbag97
ag106
ag62
a(iMethods
Instance
p186
(dp187
g50
(iMethods
FeatureVector
p188
(dp189
g53
(dp190
I0
F0.0
sI1
F0.0
sI2
F0.0
sI3
F0.0
sI4
F0.0
sI5
F0.0
sI6
F2.0
sI7
F2.0
sI8
F2.0
sI9
F2.0
sI10
F0.0
sI11
F2.0
sI12
F2.0
sI13
F2.0
sI14
F2.0
sI15
F2.0
ssbsg55
g0
(g56
g2
Ntp191
Rp192
(dp193
g60
S'democrat'
p194
sbsba(iMethods
Instance
p195
(dp196
g50
(iMethods
FeatureVector
p197
(dp198
g53
(dp199
I0
F0.0
sI1
F2.0
sI2
F0.0
sI3
F0.0
sI4
F2.0
sI5
F2.0
sI6
F0.0
sI7
F0.0
sI8
F0.0
sI9
F0.0
sI10
F0.0
sI11
F2.0
sI12
F2.0
sI13
F2.0
sI14
F2.0
sI15
F2.0
ssbsg55
g0
(g56
g2
Ntp200
Rp201
(dp202
g60
S'democrat'
p203
sbsba(iMethods
Instance
p204
(dp205
g50
(iMethods
FeatureVector
p206
(dp207
g53
(dp208
I0
F0.0
sI1
F0.0
sI2
F0.0
sI3
F0.0
sI4
F2.0
sI5
F2.0
sI6
F2.0
sI7
F0.0
sI8
F0.0
sI9
F0.0
sI10
F0.0
sI11
F2.0
sI12
F2.0
sI13
F2.0
sI14
F0.0
sI15
F2.0
ssbsg55
g0
(g56
g2
Ntp209
Rp210
(dp211
g60
S'democrat'
p212
sbsba(iMethods
Instance
p213
(dp214
g50
(iMethods
FeatureVector
p215
(dp216
g53
(dp217
I0
F2.0
sI1
F2.0
sI2
F0.0
sI3
F0.0
sI4
F2.0
sI5
F2.0
sI6
F0.0
sI7
F0.0
sI8
F0.0
sI9
F2.0
sI10
F2.0
sI11
F2.0
sI12
F2.0
sI13
F2.0
sI14
F0.0
sI15
F1.0
ssbsg55
g0
(g56
g2
Ntp218
Rp219
(dp220
g60
S'democrat'
p221
sbsba(iMethods
Instance
p222
(dp223
g50
(iMethods
FeatureVector
p224
(dp225
g53
(dp226
I0
F0.0
sI1
F0.0
sI2
F0.0
sI3
F0.0
sI4
F2.0
sI5
F2.0
sI6
F0.0
sI7
F0.0
sI8
F0.0
sI9
F2.0
sI10
F2.0
sI11
F2.0
sI12
F2.0
sI13
F2.0
sI14
F0.0
sI15
F2.0
ssbsg55
g0
(g56
g2
Ntp227
Rp228
(dp229
g60
S'democrat'
p230
sbsbag115
ag124
a(iMethods
Instance
p231
(dp232
g50
(iMethods
FeatureVector
p233
(dp234
g53
(dp235
I0
F0.0
sI1
F0.0
sI2
F0.0
sI3
F0.0
sI4
F2.0
sI5
F2.0
sI6
F2.0
sI7
F0.0
sI8
F0.0
sI9
F0.0
sI10
F0.0
sI11
F1.0
sI12
F0.0
sI13
F2.0
sI14
F2.0
sI15
F2.0
ssbsg55
g0
(g56
g2
Ntp236
Rp237
(dp238
g60
S'republican'
p239
sbsbag71
ag133
ag142
a(iMethods
Instance
p240
(dp241
g50
(iMethods
FeatureVector
p242
(dp243
g53
(dp244
I0
F0.0
sI1
F0.0
sI2
F0.0
sI3
F0.0
sI4
F0.0
sI5
F2.0
sI6
F0.0
sI7
F2.0
sI8
F2.0
sI9
F0.0
sI10
F2.0
sI11
F2.0
sI12
F2.0
sI13
F2.0
sI14
F2.0
sI15
F0.0
ssbsg55
g0
(g56
g2
Ntp245
Rp246
(dp247
g60
S'democrat'
p248
sbsbag151
a(iMethods
Instance
p249
(dp250
g50
(iMethods
FeatureVector
p251
(dp252
g53
(dp253
I0
F0.0
sI1
F2.0
sI2
F0.0
sI3
F0.0
sI4
F2.0
sI5
F2.0
sI6
F0.0
sI7
F0.0
sI8
F1.0
sI9
F0.0
sI10
F0.0
sI11
F2.0
sI12
F2.0
sI13
F2.0
sI14
F0.0
sI15
F2.0
ssbsg55
g0
(g56
g2
Ntp254
Rp255
(dp256
g60
S'democrat'
p257
sbsbasbag27
(g28
(S'S8'
p258
I0
I1
tp259
Rp260
(I3
S'|'
p261
NNNI8
I1
I0
tp262
bS'democrat'
p263
tp264
Rp265
ag27
(g28
(S'S8'
p266
I0
I1
tp267
Rp268
(I3
S'|'
p269
NNNI8
I1
I0
tp270
bS'democrat'
p271
tp272
Rp273
asg45
I2
sg46
(lp274
(iMethods
Instance
p275
(dp276
g50
(iMethods
FeatureVector
p277
(dp278
g53
(dp279
I0
F0.0
sI1
F2.0
sI2
F2.0
sI3
F0.0
sI4
F1.0
sI5
F2.0
sI6
F0.0
sI7
F0.0
sI8
F0.0
sI9
F0.0
sI10
F2.0
sI11
F0.0
sI12
F2.0
sI13
F0.0
sI14
F0.0
sI15
F2.0
ssbsg55
g0
(g56
g2
Ntp280
Rp281
(dp282
g60
S'democrat'
p283
sbsba(iMethods
Instance
p284
(dp285
g50
(iMethods
FeatureVector
p286
(dp287
g53
(dp288
I0
F2.0
sI1
F2.0
sI2
F2.0
sI3
F0.0
sI4
F2.0
sI5
F2.0
sI6
F0.0
sI7
F0.0
sI8
F0.0
sI9
F0.0
sI10
F2.0
sI11
F1.0
sI12
F2.0
sI13
F2.0
sI14
F2.0
sI15
F2.0
ssbsg55
g0
(g56
g2
Ntp289
Rp290
(dp291
g60
S'democrat'
p292
sbsba(iMethods
Instance
p293
(dp294
g50
(iMethods
FeatureVector
p295
(dp296
g53
(dp297
I0
F0.0
sI1
F2.0
sI2
F2.0
sI3
F0.0
sI4
F2.0
sI5
F2.0
sI6
F0.0
sI7
F0.0
sI8
F0.0
sI9
F0.0
sI10
F0.0
sI11
F0.0
sI12
F2.0
sI13
F2.0
sI14
F2.0
sI15
F2.0
ssbsg55
g0
(g56
g2
Ntp298
Rp299
(dp300
g60
S'democrat'
p301
sbsba(iMethods
Instance
p302
(dp303
g50
(iMethods
FeatureVector
p304
(dp305
g53
(dp306
I0
F2.0
sI1
F2.0
sI2
F2.0
sI3
F0.0
sI4
F0.0
sI5
F0.0
sI6
F2.0
sI7
F2.0
sI8
F2.0
sI9
F0.0
sI10
F0.0
sI11
F0.0
sI12
F0.0
sI13
F0.0
sI14
F1.0
sI15
F1.0
ssbsg55
g0
(g56
g2
Ntp307
Rp308
(dp309
g60
S'democrat'
p310
sbsba(iMethods
Instance
p311
(dp312
g50
(iMethods
FeatureVector
p313
(dp314
g53
(dp315
I0
F0.0
sI1
F2.0
sI2
F2.0
sI3
F0.0
sI4
F0.0
sI5
F0.0
sI6
F2.0
sI7
F2.0
sI8
F2.0
sI9
F0.0
sI10
F0.0
sI11
F0.0
sI12
F2.0
sI13
F0.0
sI14
F1.0
sI15
F1.0
ssbsg55
g0
(g56
g2
Ntp316
Rp317
(dp318
g60
S'democrat'
p319
sbsba(iMethods
Instance
p320
(dp321
g50
(iMethods
FeatureVector
p322
(dp323
g53
(dp324
I0
F2.0
sI1
F2.0
sI2
F2.0
sI3
F0.0
sI4
F0.0
sI5
F2.0
sI6
F2.0
sI7
F2.0
sI8
F1.0
sI9
F2.0
sI10
F2.0
sI11
F1.0
sI12
F0.0
sI13
F0.0
sI14
F2.0
sI15
F1.0
ssbsg55
g0
(g56
g2
Ntp325
Rp326
(dp327
g60
S'democrat'
p328
sbsba(iMethods
Instance
p329
(dp330
g50
(iMethods
FeatureVector
p331
(dp332
g53
(dp333
I0
F2.0
sI1
F0.0
sI2
F2.0
sI3
F0.0
sI4
F0.0
sI5
F2.0
sI6
F0.0
sI7
F2.0
sI8
F1.0
sI9
F2.0
sI10
F2.0
sI11
F2.0
sI12
F1.0
sI13
F0.0
sI14
F0.0
sI15
F2.0
ssbsg55
g0
(g56
g2
Ntp334
Rp335
(dp336
g60
S'democrat'
p337
sbsba(iMethods
Instance
p338
(dp339
g50
(iMethods
FeatureVector
p340
(dp341
g53
(dp342
I0
F2.0
sI1
F1.0
sI2
F2.0
sI3
F0.0
sI4
F0.0
sI5
F0.0
sI6
F2.0
sI7
F2.0
sI8
F2.0
sI9
F0.0
sI10
F0.0
sI11
F0.0
sI12
F2.0
sI13
F0.0
sI14
F2.0
sI15
F2.0
ssbsg55
g0
(g56
g2
Ntp343
Rp344
(dp345
g60
S'democrat'
p346
sbsba(iMethods
Instance
p347
(dp348
g50
(iMethods
FeatureVector
p349
(dp350
g53
(dp351
I0
F2.0
sI1
F2.0
sI2
F2.0
sI3
F0.0
sI4
F0.0
sI5
F0.0
sI6
F2.0
sI7
F2.0
sI8
F2.0
sI9
F0.0
sI10
F2.0
sI11
F0.0
sI12
F0.0
sI13
F0.0
sI14
F2.0
sI15
F2.0
ssbsg55
g0
(g56
g2
Ntp352
Rp353
(dp354
g60
S'democrat'
p355
sbsba(iMethods
Instance
p356
(dp357
g50
(iMethods
FeatureVector
p358
(dp359
g53
(dp360
I0
F2.0
sI1
F2.0
sI2
F2.0
sI3
F0.0
sI4
F0.0
sI5
F1.0
sI6
F2.0
sI7
F2.0
sI8
F0.0
sI9
F0.0
sI10
F2.0
sI11
F0.0
sI12
F0.0
sI13
F0.0
sI14
F2.0
sI15
F2.0
ssbsg55
g0
(g56
g2
Ntp361
Rp362
(dp363
g60
S'democrat'
p364
sbsba(iMethods
Instance
p365
(dp366
g50
(iMethods
FeatureVector
p367
(dp368
g53
(dp369
I0
F2.0
sI1
F2.0
sI2
F2.0
sI3
F0.0
sI4
F0.0
sI5
F0.0
sI6
F2.0
sI7
F2.0
sI8
F2.0
sI9
F0.0
sI10
F0.0
sI11
F0.0
sI12
F1.0
sI13
F1.0
sI14
F2.0
sI15
F2.0
ssbsg55
g0
(g56
g2
Ntp370
Rp371
(dp372
g60
S'democrat'
p373
sbsba(iMethods
Instance
p374
(dp375
g50
(iMethods
FeatureVector
p376
(dp377
g53
(dp378
I0
F2.0
sI1
F1.0
sI2
F2.0
sI3
F0.0
sI4
F0.0
sI5
F0.0
sI6
F2.0
sI7
F2.0
sI8
F2.0
sI9
F0.0
sI10
F0.0
sI11
F1.0
sI12
F0.0
sI13
F0.0
sI14
F2.0
sI15
F2.0
ssbsg55
g0
(g56
g2
Ntp379
Rp380
(dp381
g60
S'democrat'
p382
sbsba(iMethods
Instance
p383
(dp384
g50
(iMethods
FeatureVector
p385
(dp386
g53
(dp387
I0
F2.0
sI1
F2.0
sI2
F2.0
sI3
F0.0
sI4
F0.0
sI5
F0.0
sI6
F2.0
sI7
F2.0
sI8
F2.0
sI9
F0.0
sI10
F0.0
sI11
F0.0
sI12
F0.0
sI13
F0.0
sI14
F2.0
sI15
F2.0
ssbsg55
g0
(g56
g2
Ntp388
Rp389
(dp390
g60
S'democrat'
p391
sbsba(iMethods
Instance
p392
(dp393
g50
(iMethods
FeatureVector
p394
(dp395
g53
(dp396
I0
F2.0
sI1
F0.0
sI2
F2.0
sI3
F0.0
sI4
F0.0
sI5
F0.0
sI6
F2.0
sI7
F2.0
sI8
F2.0
sI9
F0.0
sI10
F0.0
sI11
F0.0
sI12
F0.0
sI13
F0.0
sI14
F2.0
sI15
F1.0
ssbsg55
g0
(g56
g2
Ntp397
Rp398
(dp399
g60
S'democrat'
p400
sbsba(iMethods
Instance
p401
(dp402
g50
(iMethods
FeatureVector
p403
(dp404
g53
(dp405
I0
F2.0
sI1
F0.0
sI2
F2.0
sI3
F0.0
sI4
F0.0
sI5
F0.0
sI6
F2.0
sI7
F2.0
sI8
F2.0
sI9
F2.0
sI10
F0.0
sI11
F0.0
sI12
F0.0
sI13
F0.0
sI14
F2.0
sI15
F2.0
ssbsg55
g0
(g56
g2
Ntp406
Rp407
(dp408
g60
S'democrat'
p409
sbsba(iMethods
Instance
p410
(dp411
g50
(iMethods
FeatureVector
p412
(dp413
g53
(dp414
I0
F2.0
sI1
F0.0
sI2
F2.0
sI3
F0.0
sI4
F0.0
sI5
F0.0
sI6
F2.0
sI7
F2.0
sI8
F2.0
sI9
F0.0
sI10
F2.0
sI11
F0.0
sI12
F0.0
sI13
F0.0
sI14
F2.0
sI15
F2.0
ssbsg55
g0
(g56
g2
Ntp415
Rp416
(dp417
g60
S'democrat'
p418
sbsba(iMethods
Instance
p419
(dp420
g50
(iMethods
FeatureVector
p421
(dp422
g53
(dp423
I0
F2.0
sI1
F2.0
sI2
F2.0
sI3
F0.0
sI4
F0.0
sI5
F0.0
sI6
F2.0
sI7
F2.0
sI8
F2.0
sI9
F0.0
sI10
F2.0
sI11
F0.0
sI12
F0.0
sI13
F0.0
sI14
F2.0
sI15
F2.0
ssbsg55
g0
(g56
g2
Ntp424
Rp425
(dp426
g60
S'democrat'
p427
sbsba(iMethods
Instance
p428
(dp429
g50
(iMethods
FeatureVector
p430
(dp431
g53
(dp432
I0
F2.0
sI1
F2.0
sI2
F2.0
sI3
F0.0
sI4
F0.0
sI5
F0.0
sI6
F2.0
sI7
F2.0
sI8
F2.0
sI9
F0.0
sI10
F2.0
sI11
F0.0
sI12
F0.0
sI13
F0.0
sI14
F2.0
sI15
F2.0
ssbsg55
g0
(g56
g2
Ntp433
Rp434
(dp435
g60
S'democrat'
p436
sbsba(iMethods
Instance
p437
(dp438
g50
(iMethods
FeatureVector
p439
(dp440
g53
(dp441
I0
F2.0
sI1
F2.0
sI2
F2.0
sI3
F0.0
sI4
F0.0
sI5
F0.0
sI6
F2.0
sI7
F2.0
sI8
F2.0
sI9
F0.0
sI10
F2.0
sI11
F0.0
sI12
F0.0
sI13
F0.0
sI14
F2.0
sI15
F1.0
ssbsg55
g0
(g56
g2
Ntp442
Rp443
(dp444
g60
S'democrat'
p445
sbsba(iMethods
Instance
p446
(dp447
g50
(iMethods
FeatureVector
p448
(dp449
g53
(dp450
I0
F2.0
sI1
F2.0
sI2
F2.0
sI3
F0.0
sI4
F0.0
sI5
F0.0
sI6
F2.0
sI7
F2.0
sI8
F2.0
sI9
F2.0
sI10
F0.0
sI11
F0.0
sI12
F2.0
sI13
F0.0
sI14
F2.0
sI15
F2.0
ssbsg55
g0
(g56
g2
Ntp451
Rp452
(dp453
g60
S'democrat'
p454
sbsba(iMethods
Instance
p455
(dp456
g50
(iMethods
FeatureVector
p457
(dp458
g53
(dp459
I0
F2.0
sI1
F2.0
sI2
F2.0
sI3
F0.0
sI4
F0.0
sI5
F0.0
sI6
F2.0
sI7
F2.0
sI8
F2.0
sI9
F0.0
sI10
F0.0
sI11
F0.0
sI12
F0.0
sI13
F0.0
sI14
F2.0
sI15
F2.0
ssbsg55
g0
(g56
g2
Ntp460
Rp461
(dp462
g60
S'democrat'
p463
sbsba(iMethods
Instance
p464
(dp465
g50
(iMethods
FeatureVector
p466
(dp467
g53
(dp468
I0
F2.0
sI1
F0.0
sI2
F2.0
sI3
F0.0
sI4
F0.0
sI5
F0.0
sI6
F2.0
sI7
F2.0
sI8
F2.0
sI9
F2.0
sI10
F2.0
sI11
F0.0
sI12
F2.0
sI13
F0.0
sI14
F2.0
sI15
F2.0
ssbsg55
g0
(g56
g2
Ntp469
Rp470
(dp471
g60
S'democrat'
p472
sbsba(iMethods
Instance
p473
(dp474
g50
(iMethods
FeatureVector
p475
(dp476
g53
(dp477
I0
F2.0
sI1
F2.0
sI2
F2.0
sI3
F0.0
sI4
F0.0
sI5
F0.0
sI6
F2.0
sI7
F2.0
sI8
F2.0
sI9
F0.0
sI10
F1.0
sI11
F0.0
sI12
F0.0
sI13
F0.0
sI14
F0.0
sI15
F1.0
ssbsg55
g0
(g56
g2
Ntp478
Rp479
(dp480
g60
S'democrat'
p481
sbsba(iMethods
Instance
p482
(dp483
g50
(iMethods
FeatureVector
p484
(dp485
g53
(dp486
I0
F2.0
sI1
F2.0
sI2
F2.0
sI3
F0.0
sI4
F0.0
sI5
F0.0
sI6
F2.0
sI7
F2.0
sI8
F2.0
sI9
F0.0
sI10
F0.0
sI11
F0.0
sI12
F0.0
sI13
F0.0
sI14
F2.0
sI15
F1.0
ssbsg55
g0
(g56
g2
Ntp487
Rp488
(dp489
g60
S'democrat'
p490
sbsba(iMethods
Instance
p491
(dp492
g50
(iMethods
FeatureVector
p493
(dp494
g53
(dp495
I0
F2.0
sI1
F0.0
sI2
F2.0
sI3
F0.0
sI4
F0.0
sI5
F0.0
sI6
F2.0
sI7
F2.0
sI8
F2.0
sI9
F0.0
sI10
F0.0
sI11
F0.0
sI12
F0.0
sI13
F0.0
sI14
F0.0
sI15
F2.0
ssbsg55
g0
(g56
g2
Ntp496
Rp497
(dp498
g60
S'democrat'
p499
sbsba(iMethods
Instance
p500
(dp501
g50
(iMethods
FeatureVector
p502
(dp503
g53
(dp504
I0
F2.0
sI1
F0.0
sI2
F2.0
sI3
F0.0
sI4
F0.0
sI5
F0.0
sI6
F2.0
sI7
F2.0
sI8
F2.0
sI9
F0.0
sI10
F0.0
sI11
F0.0
sI12
F0.0
sI13
F0.0
sI14
F2.0
sI15
F2.0
ssbsg55
g0
(g56
g2
Ntp505
Rp506
(dp507
g60
S'democrat'
p508
sbsba(iMethods
Instance
p509
(dp510
g50
(iMethods
FeatureVector
p511
(dp512
g53
(dp513
I0
F2.0
sI1
F2.0
sI2
F2.0
sI3
F0.0
sI4
F0.0
sI5
F0.0
sI6
F2.0
sI7
F2.0
sI8
F2.0
sI9
F0.0
sI10
F2.0
sI11
F0.0
sI12
F0.0
sI13
F0.0
sI14
F0.0
sI15
F1.0
ssbsg55
g0
(g56
g2
Ntp514
Rp515
(dp516
g60
S'democrat'
p517
sbsba(iMethods
Instance
p518
(dp519
g50
(iMethods
FeatureVector
p520
(dp521
g53
(dp522
I0
F2.0
sI1
F2.0
sI2
F2.0
sI3
F0.0
sI4
F0.0
sI5
F0.0
sI6
F2.0
sI7
F2.0
sI8
F1.0
sI9
F0.0
sI10
F2.0
sI11
F0.0
sI12
F0.0
sI13
F0.0
sI14
F2.0
sI15
F1.0
ssbsg55
g0
(g56
g2
Ntp523
Rp524
(dp525
g60
S'democrat'
p526
sbsba(iMethods
Instance
p527
(dp528
g50
(iMethods
FeatureVector
p529
(dp530
g53
(dp531
I0
F2.0
sI1
F2.0
sI2
F2.0
sI3
F0.0
sI4
F0.0
sI5
F0.0
sI6
F2.0
sI7
F2.0
sI8
F2.0
sI9
F0.0
sI10
F0.0
sI11
F0.0
sI12
F0.0
sI13
F0.0
sI14
F0.0
sI15
F2.0
ssbsg55
g0
(g56
g2
Ntp532
Rp533
(dp534
g60
S'democrat'
p535
sbsba(iMethods
Instance
p536
(dp537
g50
(iMethods
FeatureVector
p538
(dp539
g53
(dp540
I0
F2.0
sI1
F0.0
sI2
F2.0
sI3
F0.0
sI4
F0.0
sI5
F0.0
sI6
F2.0
sI7
F2.0
sI8
F1.0
sI9
F0.0
sI10
F0.0
sI11
F0.0
sI12
F0.0
sI13
F0.0
sI14
F0.0
sI15
F1.0
ssbsg55
g0
(g56
g2
Ntp541
Rp542
(dp543
g60
S'democrat'
p544
sbsba(iMethods
Instance
p545
(dp546
g50
(iMethods
FeatureVector
p547
(dp548
g53
(dp549
I0
F2.0
sI1
F2.0
sI2
F2.0
sI3
F0.0
sI4
F0.0
sI5
F0.0
sI6
F2.0
sI7
F2.0
sI8
F0.0
sI9
F0.0
sI10
F0.0
sI11
F0.0
sI12
F0.0
sI13
F2.0
sI14
F0.0
sI15
F2.0
ssbsg55
g0
(g56
g2
Ntp550
Rp551
(dp552
g60
S'democrat'
p553
sbsba(iMethods
Instance
p554
(dp555
g50
(iMethods
FeatureVector
p556
(dp557
g53
(dp558
I0
F2.0
sI1
F2.0
sI2
F2.0
sI3
F0.0
sI4
F0.0
sI5
F0.0
sI6
F2.0
sI7
F2.0
sI8
F2.0
sI9
F0.0
sI10
F2.0
sI11
F0.0
sI12
F0.0
sI13
F0.0
sI14
F2.0
sI15
F2.0
ssbsg55
g0
(g56
g2
Ntp559
Rp560
(dp561
g60
S'democrat'
p562
sbsba(iMethods
Instance
p563
(dp564
g50
(iMethods
FeatureVector
p565
(dp566
g53
(dp567
I0
F2.0
sI1
F2.0
sI2
F2.0
sI3
F0.0
sI4
F0.0
sI5
F0.0
sI6
F2.0
sI7
F2.0
sI8
F2.0
sI9
F0.0
sI10
F0.0
sI11
F0.0
sI12
F0.0
sI13
F0.0
sI14
F1.0
sI15
F1.0
ssbsg55
g0
(g56
g2
Ntp568
Rp569
(dp570
g60
S'democrat'
p571
sbsba(iMethods
Instance
p572
(dp573
g50
(iMethods
FeatureVector
p574
(dp575
g53
(dp576
I0
F2.0
sI1
F2.0
sI2
F2.0
sI3
F0.0
sI4
F0.0
sI5
F2.0
sI6
F1.0
sI7
F2.0
sI8
F0.0
sI9
F0.0
sI10
F2.0
sI11
F2.0
sI12
F0.0
sI13
F2.0
sI14
F0.0
sI15
F1.0
ssbsg55
g0
(g56
g2
Ntp577
Rp578
(dp579
g60
S'democrat'
p580
sbsba(iMethods
Instance
p581
(dp582
g50
(iMethods
FeatureVector
p583
(dp584
g53
(dp585
I0
F2.0
sI1
F2.0
sI2
F2.0
sI3
F0.0
sI4
F0.0
sI5
F1.0
sI6
F2.0
sI7
F2.0
sI8
F2.0
sI9
F2.0
sI10
F0.0
sI11
F0.0
sI12
F0.0
sI13
F0.0
sI14
F2.0
sI15
F1.0
ssbsg55
g0
(g56
g2
Ntp586
Rp587
(dp588
g60
S'democrat'
p589
sbsba(iMethods
Instance
p590
(dp591
g50
(iMethods
FeatureVector
p592
(dp593
g53
(dp594
I0
F2.0
sI1
F2.0
sI2
F2.0
sI3
F0.0
sI4
F0.0
sI5
F0.0
sI6
F2.0
sI7
F2.0
sI8
F2.0
sI9
F0.0
sI10
F0.0
sI11
F0.0
sI12
F0.0
sI13
F0.0
sI14
F0.0
sI15
F1.0
ssbsg55
g0
(g56
g2
Ntp595
Rp596
(dp597
g60
S'democrat'
p598
sbsba(iMethods
Instance
p599
(dp600
g50
(iMethods
FeatureVector
p601
(dp602
g53
(dp603
I0
F2.0
sI1
F2.0
sI2
F2.0
sI3
F0.0
sI4
F0.0
sI5
F0.0
sI6
F2.0
sI7
F2.0
sI8
F2.0
sI9
F0.0
sI10
F2.0
sI11
F0.0
sI12
F0.0
sI13
F0.0
sI14
F0.0
sI15
F2.0
ssbsg55
g0
(g56
g2
Ntp604
Rp605
(dp606
g60
S'democrat'
p607
sbsba(iMethods
Instance
p608
(dp609
g50
(iMethods
FeatureVector
p610
(dp611
g53
(dp612
I0
F2.0
sI1
F2.0
sI2
F2.0
sI3
F0.0
sI4
F0.0
sI5
F0.0
sI6
F2.0
sI7
F2.0
sI8
F2.0
sI9
F0.0
sI10
F2.0
sI11
F1.0
sI12
F0.0
sI13
F0.0
sI14
F0.0
sI15
F2.0
ssbsg55
g0
(g56
g2
Ntp613
Rp614
(dp615
g60
S'democrat'
p616
sbsba(iMethods
Instance
p617
(dp618
g50
(iMethods
FeatureVector
p619
(dp620
g53
(dp621
I0
F2.0
sI1
F1.0
sI2
F2.0
sI3
F0.0
sI4
F0.0
sI5
F0.0
sI6
F2.0
sI7
F2.0
sI8
F2.0
sI9
F0.0
sI10
F0.0
sI11
F0.0
sI12
F2.0
sI13
F0.0
sI14
F2.0
sI15
F2.0
ssbsg55
g0
(g56
g2
Ntp622
Rp623
(dp624
g60
S'democrat'
p625
sbsba(iMethods
Instance
p626
(dp627
g50
(iMethods
FeatureVector
p628
(dp629
g53
(dp630
I0
F2.0
sI1
F2.0
sI2
F2.0
sI3
F0.0
sI4
F0.0
sI5
F0.0
sI6
F2.0
sI7
F2.0
sI8
F2.0
sI9
F0.0
sI10
F0.0
sI11
F0.0
sI12
F0.0
sI13
F0.0
sI14
F2.0
sI15
F2.0
ssbsg55
g0
(g56
g2
Ntp631
Rp632
(dp633
g60
S'democrat'
p634
sbsba(iMethods
Instance
p635
(dp636
g50
(iMethods
FeatureVector
p637
(dp638
g53
(dp639
I0
F2.0
sI1
F0.0
sI2
F2.0
sI3
F0.0
sI4
F0.0
sI5
F0.0
sI6
F2.0
sI7
F2.0
sI8
F2.0
sI9
F0.0
sI10
F0.0
sI11
F0.0
sI12
F2.0
sI13
F0.0
sI14
F2.0
sI15
F1.0
ssbsg55
g0
(g56
g2
Ntp640
Rp641
(dp642
g60
S'democrat'
p643
sbsba(iMethods
Instance
p644
(dp645
g50
(iMethods
FeatureVector
p646
(dp647
g53
(dp648
I0
F2.0
sI1
F2.0
sI2
F2.0
sI3
F0.0
sI4
F0.0
sI5
F0.0
sI6
F2.0
sI7
F2.0
sI8
F2.0
sI9
F0.0
sI10
F2.0
sI11
F0.0
sI12
F0.0
sI13
F0.0
sI14
F2.0
sI15
F1.0
ssbsg55
g0
(g56
g2
Ntp649
Rp650
(dp651
g60
S'democrat'
p652
sbsba(iMethods
Instance
p653
(dp654
g50
(iMethods
FeatureVector
p655
(dp656
g53
(dp657
I0
F2.0
sI1
F0.0
sI2
F2.0
sI3
F0.0
sI4
F0.0
sI5
F2.0
sI6
F2.0
sI7
F2.0
sI8
F2.0
sI9
F2.0
sI10
F2.0
sI11
F0.0
sI12
F0.0
sI13
F2.0
sI14
F2.0
sI15
F2.0
ssbsg55
g0
(g56
g2
Ntp658
Rp659
(dp660
g60
S'democrat'
p661
sbsba(iMethods
Instance
p662
(dp663
g50
(iMethods
FeatureVector
p664
(dp665
g53
(dp666
I0
F0.0
sI1
F2.0
sI2
F2.0
sI3
F0.0
sI4
F2.0
sI5
F2.0
sI6
F0.0
sI7
F0.0
sI8
F0.0
sI9
F2.0
sI10
F2.0
sI11
F2.0
sI12
F2.0
sI13
F2.0
sI14
F0.0
sI15
F1.0
ssbsg55
g0
(g56
g2
Ntp667
Rp668
(dp669
g60
S'democrat'
p670
sbsba(iMethods
Instance
p671
(dp672
g50
(iMethods
FeatureVector
p673
(dp674
g53
(dp675
I0
F2.0
sI1
F2.0
sI2
F2.0
sI3
F0.0
sI4
F2.0
sI5
F2.0
sI6
F0.0
sI7
F0.0
sI8
F0.0
sI9
F2.0
sI10
F2.0
sI11
F0.0
sI12
F2.0
sI13
F2.0
sI14
F0.0
sI15
F2.0
ssbsg55
g0
(g56
g2
Ntp676
Rp677
(dp678
g60
S'democrat'
p679
sbsba(iMethods
Instance
p680
(dp681
g50
(iMethods
FeatureVector
p682
(dp683
g53
(dp684
I0
F2.0
sI1
F0.0
sI2
F2.0
sI3
F0.0
sI4
F0.0
sI5
F2.0
sI6
F2.0
sI7
F2.0
sI8
F2.0
sI9
F2.0
sI10
F0.0
sI11
F2.0
sI12
F0.0
sI13
F2.0
sI14
F0.0
sI15
F1.0
ssbsg55
g0
(g56
g2
Ntp685
Rp686
(dp687
g60
S'democrat'
p688
sbsba(iMethods
Instance
p689
(dp690
g50
(iMethods
FeatureVector
p691
(dp692
g53
(dp693
I0
F2.0
sI1
F0.0
sI2
F2.0
sI3
F0.0
sI4
F0.0
sI5
F0.0
sI6
F2.0
sI7
F2.0
sI8
F1.0
sI9
F2.0
sI10
F2.0
sI11
F2.0
sI12
F0.0
sI13
F2.0
sI14
F0.0
sI15
F2.0
ssbsg55
g0
(g56
g2
Ntp694
Rp695
(dp696
g60
S'democrat'
p697
sbsba(iMethods
Instance
p698
(dp699
g50
(iMethods
FeatureVector
p700
(dp701
g53
(dp702
I0
F0.0
sI1
F0.0
sI2
F2.0
sI3
F0.0
sI4
F2.0
sI5
F2.0
sI6
F0.0
sI7
F0.0
sI8
F0.0
sI9
F2.0
sI10
F2.0
sI11
F2.0
sI12
F2.0
sI13
F2.0
sI14
F0.0
sI15
F2.0
ssbsg55
g0
(g56
g2
Ntp703
Rp704
(dp705
g60
S'democrat'
p706
sbsba(iMethods
Instance
p707
(dp708
g50
(iMethods
FeatureVector
p709
(dp710
g53
(dp711
I0
F0.0
sI1
F2.0
sI2
F2.0
sI3
F0.0
sI4
F2.0
sI5
F2.0
sI6
F2.0
sI7
F0.0
sI8
F2.0
sI9
F2.0
sI10
F2.0
sI11
F0.0
sI12
F2.0
sI13
F2.0
sI14
F0.0
sI15
F2.0
ssbsg55
g0
(g56
g2
Ntp712
Rp713
(dp714
g60
S'democrat'
p715
sbsba(iMethods
Instance
p716
(dp717
g50
(iMethods
FeatureVector
p718
(dp719
g53
(dp720
I0
F2.0
sI1
F0.0
sI2
F2.0
sI3
F0.0
sI4
F0.0
sI5
F0.0
sI6
F2.0
sI7
F2.0
sI8
F2.0
sI9
F2.0
sI10
F0.0
sI11
F0.0
sI12
F0.0
sI13
F0.0
sI14
F2.0
sI15
F2.0
ssbsg55
g0
(g56
g2
Ntp721
Rp722
(dp723
g60
S'democrat'
p724
sbsba(iMethods
Instance
p725
(dp726
g50
(iMethods
FeatureVector
p727
(dp728
g53
(dp729
I0
F2.0
sI1
F0.0
sI2
F2.0
sI3
F0.0
sI4
F0.0
sI5
F0.0
sI6
F2.0
sI7
F2.0
sI8
F2.0
sI9
F2.0
sI10
F2.0
sI11
F0.0
sI12
F0.0
sI13
F0.0
sI14
F2.0
sI15
F2.0
ssbsg55
g0
(g56
g2
Ntp730
Rp731
(dp732
g60
S'democrat'
p733
sbsba(iMethods
Instance
p734
(dp735
g50
(iMethods
FeatureVector
p736
(dp737
g53
(dp738
I0
F2.0
sI1
F2.0
sI2
F2.0
sI3
F0.0
sI4
F0.0
sI5
F0.0
sI6
F2.0
sI7
F2.0
sI8
F0.0
sI9
F2.0
sI10
F2.0
sI11
F0.0
sI12
F0.0
sI13
F1.0
sI14
F2.0
sI15
F2.0
ssbsg55
g0
(g56
g2
Ntp739
Rp740
(dp741
g60
S'democrat'
p742
sbsba(iMethods
Instance
p743
(dp744
g50
(iMethods
FeatureVector
p745
(dp746
g53
(dp747
I0
F2.0
sI1
F0.0
sI2
F2.0
sI3
F0.0
sI4
F0.0
sI5
F0.0
sI6
F2.0
sI7
F0.0
sI8
F2.0
sI9
F2.0
sI10
F2.0
sI11
F0.0
sI12
F0.0
sI13
F0.0
sI14
F2.0
sI15
F2.0
ssbsg55
g0
(g56
g2
Ntp748
Rp749
(dp750
g60
S'democrat'
p751
sbsba(iMethods
Instance
p752
(dp753
g50
(iMethods
FeatureVector
p754
(dp755
g53
(dp756
I0
F2.0
sI1
F0.0
sI2
F2.0
sI3
F0.0
sI4
F2.0
sI5
F2.0
sI6
F0.0
sI7
F0.0
sI8
F0.0
sI9
F0.0
sI10
F0.0
sI11
F0.0
sI12
F0.0
sI13
F0.0
sI14
F0.0
sI15
F2.0
ssbsg55
g0
(g56
g2
Ntp757
Rp758
(dp759
g60
S'democrat'
p760
sbsba(iMethods
Instance
p761
(dp762
g50
(iMethods
FeatureVector
p763
(dp764
g53
(dp765
I0
F2.0
sI1
F0.0
sI2
F2.0
sI3
F0.0
sI4
F2.0
sI5
F2.0
sI6
F0.0
sI7
F1.0
sI8
F1.0
sI9
F0.0
sI10
F2.0
sI11
F1.0
sI12
F1.0
sI13
F1.0
sI14
F2.0
sI15
F2.0
ssbsg55
g0
(g56
g2
Ntp766
Rp767
(dp768
g60
S'democrat'
p769
sbsba(iMethods
Instance
p770
(dp771
g50
(iMethods
FeatureVector
p772
(dp773
g53
(dp774
I0
F0.0
sI1
F0.0
sI2
F1.0
sI3
F0.0
sI4
F2.0
sI5
F2.0
sI6
F0.0
sI7
F0.0
sI8
F0.0
sI9
F0.0
sI10
F2.0
sI11
F2.0
sI12
F2.0
sI13
F2.0
sI14
F0.0
sI15
F2.0
ssbsg55
g0
(g56
g2
Ntp775
Rp776
(dp777
g60
S'democrat'
p778
sbsbag48
a(iMethods
Instance
p779
(dp780
g50
(iMethods
FeatureVector
p781
(dp782
g53
(dp783
I0
F2.0
sI1
F2.0
sI2
F2.0
sI3
F0.0
sI4
F0.0
sI5
F2.0
sI6
F2.0
sI7
F2.0
sI8
F2.0
sI9
F2.0
sI10
F0.0
sI11
F0.0
sI12
F0.0
sI13
F0.0
sI14
F0.0
sI15
F2.0
ssbsg55
g0
(g56
g2
Ntp784
Rp785
(dp786
g60
S'democrat'
p787
sbsbag177
a(iMethods
Instance
p788
(dp789
g50
(iMethods
FeatureVector
p790
(dp791
g53
(dp792
I0
F2.0
sI1
F0.0
sI2
F2.0
sI3
F0.0
sI4
F2.0
sI5
F2.0
sI6
F2.0
sI7
F0.0
sI8
F0.0
sI9
F0.0
sI10
F2.0
sI11
F0.0
sI12
F0.0
sI13
F2.0
sI14
F0.0
sI15
F2.0
ssbsg55
g0
(g56
g2
Ntp793
Rp794
(dp795
g60
S'democrat'
p796
sbsba(iMethods
Instance
p797
(dp798
g50
(iMethods
FeatureVector
p799
(dp800
g53
(dp801
I0
F2.0
sI1
F0.0
sI2
F2.0
sI3
F0.0
sI4
F2.0
sI5
F2.0
sI6
F2.0
sI7
F0.0
sI8
F1.0
sI9
F0.0
sI10
F2.0
sI11
F0.0
sI12
F2.0
sI13
F2.0
sI14
F2.0
sI15
F1.0
ssbsg55
g0
(g56
g2
Ntp802
Rp803
(dp804
g60
S'democrat'
p805
sbsbag97
a(iMethods
Instance
p806
(dp807
g50
(iMethods
FeatureVector
p808
(dp809
g53
(dp810
I0
F2.0
sI1
F2.0
sI2
F2.0
sI3
F0.0
sI4
F0.0
sI5
F0.0
sI6
F0.0
sI7
F2.0
sI8
F2.0
sI9
F0.0
sI10
F2.0
sI11
F0.0
sI12
F0.0
sI13
F0.0
sI14
F2.0
sI15
F2.0
ssbsg55
g0
(g56
g2
Ntp811
Rp812
(dp813
g60
S'democrat'
p814
sbsba(iMethods
Instance
p815
(dp816
g50
(iMethods
FeatureVector
p817
(dp818
g53
(dp819
I0
F2.0
sI1
F1.0
sI2
F2.0
sI3
F0.0
sI4
F0.0
sI5
F0.0
sI6
F2.0
sI7
F2.0
sI8
F2.0
sI9
F0.0
sI10
F0.0
sI11
F0.0
sI12
F0.0
sI13
F0.0
sI14
F2.0
sI15
F1.0
ssbsg55
g0
(g56
g2
Ntp820
Rp821
(dp822
g60
S'democrat'
p823
sbsba(iMethods
Instance
p824
(dp825
g50
(iMethods
FeatureVector
p826
(dp827
g53
(dp828
I0
F2.0
sI1
F1.0
sI2
F2.0
sI3
F0.0
sI4
F0.0
sI5
F0.0
sI6
F2.0
sI7
F2.0
sI8
F2.0
sI9
F0.0
sI10
F0.0
sI11
F0.0
sI12
F0.0
sI13
F0.0
sI14
F2.0
sI15
F1.0
ssbsg55
g0
(g56
g2
Ntp829
Rp830
(dp831
g60
S'democrat'
p832
sbsba(iMethods
Instance
p833
(dp834
g50
(iMethods
FeatureVector
p835
(dp836
g53
(dp837
I0
F0.0
sI1
F0.0
sI2
F2.0
sI3
F0.0
sI4
F0.0
sI5
F0.0
sI6
F2.0
sI7
F2.0
sI8
F2.0
sI9
F2.0
sI10
F0.0
sI11
F0.0
sI12
F0.0
sI13
F0.0
sI14
F2.0
sI15
F2.0
ssbsg55
g0
(g56
g2
Ntp838
Rp839
(dp840
g60
S'democrat'
p841
sbsba(iMethods
Instance
p842
(dp843
g50
(iMethods
FeatureVector
p844
(dp845
g53
(dp846
I0
F0.0
sI1
F1.0
sI2
F2.0
sI3
F0.0
sI4
F0.0
sI5
F2.0
sI6
F2.0
sI7
F2.0
sI8
F0.0
sI9
F2.0
sI10
F0.0
sI11
F0.0
sI12
F0.0
sI13
F0.0
sI14
F2.0
sI15
F1.0
ssbsg55
g0
(g56
g2
Ntp847
Rp848
(dp849
g60
S'democrat'
p850
sbsba(iMethods
Instance
p851
(dp852
g50
(iMethods
FeatureVector
p853
(dp854
g53
(dp855
I0
F2.0
sI1
F1.0
sI2
F2.0
sI3
F0.0
sI4
F0.0
sI5
F0.0
sI6
F2.0
sI7
F2.0
sI8
F2.0
sI9
F0.0
sI10
F0.0
sI11
F0.0
sI12
F0.0
sI13
F0.0
sI14
F2.0
sI15
F1.0
ssbsg55
g0
(g56
g2
Ntp856
Rp857
(dp858
g60
S'democrat'
p859
sbsba(iMethods
Instance
p860
(dp861
g50
(iMethods
FeatureVector
p862
(dp863
g53
(dp864
I0
F0.0
sI1
F1.0
sI2
F2.0
sI3
F0.0
sI4
F1.0
sI5
F1.0
sI6
F2.0
sI7
F2.0
sI8
F2.0
sI9
F2.0
sI10
F1.0
sI11
F1.0
sI12
F0.0
sI13
F0.0
sI14
F2.0
sI15
F2.0
ssbsg55
g0
(g56
g2
Ntp865
Rp866
(dp867
g60
S'democrat'
p868
sbsba(iMethods
Instance
p869
(dp870
g50
(iMethods
FeatureVector
p871
(dp872
g53
(dp873
I0
F2.0
sI1
F0.0
sI2
F2.0
sI3
F0.0
sI4
F0.0
sI5
F0.0
sI6
F2.0
sI7
F2.0
sI8
F2.0
sI9
F0.0
sI10
F2.0
sI11
F0.0
sI12
F0.0
sI13
F0.0
sI14
F2.0
sI15
F2.0
ssbsg55
g0
(g56
g2
Ntp874
Rp875
(dp876
g60
S'democrat'
p877
sbsba(iMethods
Instance
p878
(dp879
g50
(iMethods
FeatureVector
p880
(dp881
g53
(dp882
I0
F0.0
sI1
F2.0
sI2
F2.0
sI3
F0.0
sI4
F0.0
sI5
F0.0
sI6
F0.0
sI7
F2.0
sI8
F2.0
sI9
F2.0
sI10
F2.0
sI11
F0.0
sI12
F0.0
sI13
F0.0
sI14
F2.0
sI15
F2.0
ssbsg55
g0
(g56
g2
Ntp883
Rp884
(dp885
g60
S'democrat'
p886
sbsba(iMethods
Instance
p887
(dp888
g50
(iMethods
FeatureVector
p889
(dp890
g53
(dp891
I0
F0.0
sI1
F1.0
sI2
F2.0
sI3
F0.0
sI4
F0.0
sI5
F0.0
sI6
F2.0
sI7
F2.0
sI8
F2.0
sI9
F0.0
sI10
F0.0
sI11
F0.0
sI12
F0.0
sI13
F0.0
sI14
F2.0
sI15
F2.0
ssbsg55
g0
(g56
g2
Ntp892
Rp893
(dp894
g60
S'democrat'
p895
sbsba(iMethods
Instance
p896
(dp897
g50
(iMethods
FeatureVector
p898
(dp899
g53
(dp900
I0
F0.0
sI1
F1.0
sI2
F2.0
sI3
F0.0
sI4
F0.0
sI5
F0.0
sI6
F2.0
sI7
F2.0
sI8
F2.0
sI9
F2.0
sI10
F2.0
sI11
F0.0
sI12
F0.0
sI13
F2.0
sI14
F2.0
sI15
F2.0
ssbsg55
g0
(g56
g2
Ntp901
Rp902
(dp903
g60
S'democrat'
p904
sbsba(iMethods
Instance
p905
(dp906
g50
(iMethods
FeatureVector
p907
(dp908
g53
(dp909
I0
F0.0
sI1
F1.0
sI2
F2.0
sI3
F0.0
sI4
F0.0
sI5
F2.0
sI6
F0.0
sI7
F2.0
sI8
F0.0
sI9
F2.0
sI10
F2.0
sI11
F0.0
sI12
F0.0
sI13
F0.0
sI14
F2.0
sI15
F2.0
ssbsg55
g0
(g56
g2
Ntp910
Rp911
(dp912
g60
S'democrat'
p913
sbsba(iMethods
Instance
p914
(dp915
g50
(iMethods
FeatureVector
p916
(dp917
g53
(dp918
I0
F1.0
sI1
F1.0
sI2
F2.0
sI3
F0.0
sI4
F0.0
sI5
F0.0
sI6
F2.0
sI7
F2.0
sI8
F1.0
sI9
F0.0
sI10
F1.0
sI11
F1.0
sI12
F1.0
sI13
F1.0
sI14
F1.0
sI15
F1.0
ssbsg55
g0
(g56
g2
Ntp919
Rp920
(dp921
g60
S'democrat'
p922
sbsba(iMethods
Instance
p923
(dp924
g50
(iMethods
FeatureVector
p925
(dp926
g53
(dp927
I0
F2.0
sI1
F1.0
sI2
F2.0
sI3
F0.0
sI4
F1.0
sI5
F1.0
sI6
F2.0
sI7
F2.0
sI8
F2.0
sI9
F0.0
sI10
F0.0
sI11
F0.0
sI12
F0.0
sI13
F0.0
sI14
F2.0
sI15
F1.0
ssbsg55
g0
(g56
g2
Ntp928
Rp929
(dp930
g60
S'democrat'
p931
sbsba(iMethods
Instance
p932
(dp933
g50
(iMethods
FeatureVector
p934
(dp935
g53
(dp936
I0
F0.0
sI1
F0.0
sI2
F2.0
sI3
F0.0
sI4
F0.0
sI5
F2.0
sI6
F0.0
sI7
F2.0
sI8
F2.0
sI9
F2.0
sI10
F0.0
sI11
F0.0
sI12
F0.0
sI13
F2.0
sI14
F0.0
sI15
F2.0
ssbsg55
g0
(g56
g2
Ntp937
Rp938
(dp939
g60
S'democrat'
p940
sbsba(iMethods
Instance
p941
(dp942
g50
(iMethods
FeatureVector
p943
(dp944
g53
(dp945
I0
F0.0
sI1
F1.0
sI2
F2.0
sI3
F0.0
sI4
F0.0
sI5
F2.0
sI6
F2.0
sI7
F2.0
sI8
F2.0
sI9
F2.0
sI10
F0.0
sI11
F0.0
sI12
F0.0
sI13
F2.0
sI14
F2.0
sI15
F2.0
ssbsg55
g0
(g56
g2
Ntp946
Rp947
(dp948
g60
S'democrat'
p949
sbsba(iMethods
Instance
p950
(dp951
g50
(iMethods
FeatureVector
p952
(dp953
g53
(dp954
I0
F0.0
sI1
F0.0
sI2
F2.0
sI3
F0.0
sI4
F0.0
sI5
F2.0
sI6
F2.0
sI7
F2.0
sI8
F2.0
sI9
F2.0
sI10
F0.0
sI11
F0.0
sI12
F0.0
sI13
F2.0
sI14
F0.0
sI15
F2.0
ssbsg55
g0
(g56
g2
Ntp955
Rp956
(dp957
g60
S'democrat'
p958
sbsba(iMethods
Instance
p959
(dp960
g50
(iMethods
FeatureVector
p961
(dp962
g53
(dp963
I0
F2.0
sI1
F0.0
sI2
F2.0
sI3
F0.0
sI4
F0.0
sI5
F2.0
sI6
F2.0
sI7
F2.0
sI8
F2.0
sI9
F0.0
sI10
F0.0
sI11
F0.0
sI12
F0.0
sI13
F0.0
sI14
F2.0
sI15
F2.0
ssbsg55
g0
(g56
g2
Ntp964
Rp965
(dp966
g60
S'democrat'
p967
sbsbag106
ag62
a(iMethods
Instance
p968
(dp969
g50
(iMethods
FeatureVector
p970
(dp971
g53
(dp972
I0
F0.0
sI1
F0.0
sI2
F2.0
sI3
F0.0
sI4
F0.0
sI5
F2.0
sI6
F2.0
sI7
F2.0
sI8
F2.0
sI9
F2.0
sI10
F0.0
sI11
F0.0
sI12
F0.0
sI13
F2.0
sI14
F1.0
sI15
F2.0
ssbsg55
g0
(g56
g2
Ntp973
Rp974
(dp975
g60
S'democrat'
p976
sbsbag186
a(iMethods
Instance
p977
(dp978
g50
(iMethods
FeatureVector
p979
(dp980
g53
(dp981
I0
F0.0
sI1
F0.0
sI2
F2.0
sI3
F0.0
sI4
F0.0
sI5
F0.0
sI6
F2.0
sI7
F2.0
sI8
F2.0
sI9
F2.0
sI10
F0.0
sI11
F0.0
sI12
F2.0
sI13
F0.0
sI14
F2.0
sI15
F2.0
ssbsg55
g0
(g56
g2
Ntp982
Rp983
(dp984
g60
S'democrat'
p985
sbsba(iMethods
Instance
p986
(dp987
g50
(iMethods
FeatureVector
p988
(dp989
g53
(dp990
I0
F0.0
sI1
F2.0
sI2
F2.0
sI3
F0.0
sI4
F0.0
sI5
F2.0
sI6
F0.0
sI7
F2.0
sI8
F2.0
sI9
F2.0
sI10
F2.0
sI11
F0.0
sI12
F2.0
sI13
F0.0
sI14
F2.0
sI15
F2.0
ssbsg55
g0
(g56
g2
Ntp991
Rp992
(dp993
g60
S'democrat'
p994
sbsba(iMethods
Instance
p995
(dp996
g50
(iMethods
FeatureVector
p997
(dp998
g53
(dp999
I0
F0.0
sI1
F0.0
sI2
F2.0
sI3
F0.0
sI4
F0.0
sI5
F2.0
sI6
F2.0
sI7
F2.0
sI8
F2.0
sI9
F2.0
sI10
F2.0
sI11
F0.0
sI12
F2.0
sI13
F2.0
sI14
F0.0
sI15
F2.0
ssbsg55
g0
(g56
g2
Ntp1000
Rp1001
(dp1002
g60
S'democrat'
p1003
sbsba(iMethods
Instance
p1004
(dp1005
g50
(iMethods
FeatureVector
p1006
(dp1007
g53
(dp1008
I0
F0.0
sI1
F2.0
sI2
F2.0
sI3
F0.0
sI4
F0.0
sI5
F2.0
sI6
F0.0
sI7
F2.0
sI8
F2.0
sI9
F0.0
sI10
F2.0
sI11
F0.0
sI12
F1.0
sI13
F1.0
sI14
F1.0
sI15
F1.0
ssbsg55
g0
(g56
g2
Ntp1009
Rp1010
(dp1011
g60
S'democrat'
p1012
sbsba(iMethods
Instance
p1013
(dp1014
g50
(iMethods
FeatureVector
p1015
(dp1016
g53
(dp1017
I0
F0.0
sI1
F2.0
sI2
F2.0
sI3
F0.0
sI4
F1.0
sI5
F2.0
sI6
F2.0
sI7
F2.0
sI8
F2.0
sI9
F2.0
sI10
F2.0
sI11
F0.0
sI12
F0.0
sI13
F1.0
sI14
F0.0
sI15
F1.0
ssbsg55
g0
(g56
g2
Ntp1018
Rp1019
(dp1020
g60
S'democrat'
p1021
sbsbag195
ag204
a(iMethods
Instance
p1022
(dp1023
g50
(iMethods
FeatureVector
p1024
(dp1025
g53
(dp1026
I0
F0.0
sI1
F2.0
sI2
F2.0
sI3
F0.0
sI4
F2.0
sI5
F2.0
sI6
F2.0
sI7
F0.0
sI8
F0.0
sI9
F0.0
sI10
F2.0
sI11
F2.0
sI12
F2.0
sI13
F2.0
sI14
F0.0
sI15
F2.0
ssbsg55
g0
(g56
g2
Ntp1027
Rp1028
(dp1029
g60
S'democrat'
p1030
sbsbag213
a(iMethods
Instance
p1031
(dp1032
g50
(iMethods
FeatureVector
p1033
(dp1034
g53
(dp1035
I0
F0.0
sI1
F2.0
sI2
F2.0
sI3
F0.0
sI4
F0.0
sI5
F2.0
sI6
F2.0
sI7
F2.0
sI8
F2.0
sI9
F2.0
sI10
F2.0
sI11
F0.0
sI12
F2.0
sI13
F0.0
sI14
F2.0
sI15
F1.0
ssbsg55
g0
(g56
g2
Ntp1036
Rp1037
(dp1038
g60
S'democrat'
p1039
sbsba(iMethods
Instance
p1040
(dp1041
g50
(iMethods
FeatureVector
p1042
(dp1043
g53
(dp1044
I0
F2.0
sI1
F0.0
sI2
F2.0
sI3
F0.0
sI4
F0.0
sI5
F0.0
sI6
F2.0
sI7
F2.0
sI8
F2.0
sI9
F2.0
sI10
F2.0
sI11
F0.0
sI12
F0.0
sI13
F2.0
sI14
F0.0
sI15
F2.0
ssbsg55
g0
(g56
g2
Ntp1045
Rp1046
(dp1047
g60
S'democrat'
p1048
sbsba(iMethods
Instance
p1049
(dp1050
g50
(iMethods
FeatureVector
p1051
(dp1052
g53
(dp1053
I0
F2.0
sI1
F0.0
sI2
F2.0
sI3
F0.0
sI4
F0.0
sI5
F0.0
sI6
F1.0
sI7
F2.0
sI8
F2.0
sI9
F1.0
sI10
F0.0
sI11
F0.0
sI12
F0.0
sI13
F0.0
sI14
F2.0
sI15
F1.0
ssbsg55
g0
(g56
g2
Ntp1054
Rp1055
(dp1056
g60
S'democrat'
p1057
sbsba(iMethods
Instance
p1058
(dp1059
g50
(iMethods
FeatureVector
p1060
(dp1061
g53
(dp1062
I0
F0.0
sI1
F2.0
sI2
F2.0
sI3
F0.0
sI4
F0.0
sI5
F0.0
sI6
F2.0
sI7
F2.0
sI8
F2.0
sI9
F2.0
sI10
F0.0
sI11
F0.0
sI12
F1.0
sI13
F0.0
sI14
F2.0
sI15
F2.0
ssbsg55
g0
(g56
g2
Ntp1063
Rp1064
(dp1065
g60
S'democrat'
p1066
sbsbag222
a(iMethods
Instance
p1067
(dp1068
g50
(iMethods
FeatureVector
p1069
(dp1070
g53
(dp1071
I0
F2.0
sI1
F1.0
sI2
F2.0
sI3
F0.0
sI4
F0.0
sI5
F0.0
sI6
F2.0
sI7
F2.0
sI8
F2.0
sI9
F0.0
sI10
F0.0
sI11
F0.0
sI12
F0.0
sI13
F0.0
sI14
F2.0
sI15
F1.0
ssbsg55
g0
(g56
g2
Ntp1072
Rp1073
(dp1074
g60
S'democrat'
p1075
sbsba(iMethods
Instance
p1076
(dp1077
g50
(iMethods
FeatureVector
p1078
(dp1079
g53
(dp1080
I0
F0.0
sI1
F2.0
sI2
F2.0
sI3
F0.0
sI4
F0.0
sI5
F0.0
sI6
F2.0
sI7
F2.0
sI8
F2.0
sI9
F2.0
sI10
F0.0
sI11
F0.0
sI12
F0.0
sI13
F0.0
sI14
F2.0
sI15
F2.0
ssbsg55
g0
(g56
g2
Ntp1081
Rp1082
(dp1083
g60
S'democrat'
p1084
sbsba(iMethods
Instance
p1085
(dp1086
g50
(iMethods
FeatureVector
p1087
(dp1088
g53
(dp1089
I0
F0.0
sI1
F0.0
sI2
F2.0
sI3
F0.0
sI4
F0.0
sI5
F0.0
sI6
F2.0
sI7
F2.0
sI8
F2.0
sI9
F2.0
sI10
F2.0
sI11
F1.0
sI12
F0.0
sI13
F0.0
sI14
F2.0
sI15
F2.0
ssbsg55
g0
(g56
g2
Ntp1090
Rp1091
(dp1092
g60
S'democrat'
p1093
sbsba(iMethods
Instance
p1094
(dp1095
g50
(iMethods
FeatureVector
p1096
(dp1097
g53
(dp1098
I0
F1.0
sI1
F0.0
sI2
F2.0
sI3
F0.0
sI4
F0.0
sI5
F0.0
sI6
F2.0
sI7
F2.0
sI8
F2.0
sI9
F2.0
sI10
F2.0
sI11
F1.0
sI12
F0.0
sI13
F0.0
sI14
F2.0
sI15
F1.0
ssbsg55
g0
(g56
g2
Ntp1099
Rp1100
(dp1101
g60
S'democrat'
p1102
sbsba(iMethods
Instance
p1103
(dp1104
g50
(iMethods
FeatureVector
p1105
(dp1106
g53
(dp1107
I0
F2.0
sI1
F0.0
sI2
F2.0
sI3
F0.0
sI4
F0.0
sI5
F0.0
sI6
F2.0
sI7
F2.0
sI8
F2.0
sI9
F2.0
sI10
F0.0
sI11
F0.0
sI12
F0.0
sI13
F0.0
sI14
F2.0
sI15
F2.0
ssbsg55
g0
(g56
g2
Ntp1108
Rp1109
(dp1110
g60
S'democrat'
p1111
sbsba(iMethods
Instance
p1112
(dp1113
g50
(iMethods
FeatureVector
p1114
(dp1115
g53
(dp1116
I0
F1.0
sI1
F1.0
sI2
F2.0
sI3
F0.0
sI4
F0.0
sI5
F0.0
sI6
F2.0
sI7
F2.0
sI8
F2.0
sI9
F1.0
sI10
F1.0
sI11
F0.0
sI12
F0.0
sI13
F0.0
sI14
F1.0
sI15
F1.0
ssbsg55
g0
(g56
g2
Ntp1117
Rp1118
(dp1119
g60
S'democrat'
p1120
sbsba(iMethods
Instance
p1121
(dp1122
g50
(iMethods
FeatureVector
p1123
(dp1124
g53
(dp1125
I0
F0.0
sI1
F0.0
sI2
F2.0
sI3
F0.0
sI4
F0.0
sI5
F0.0
sI6
F2.0
sI7
F2.0
sI8
F2.0
sI9
F2.0
sI10
F2.0
sI11
F0.0
sI12
F0.0
sI13
F0.0
sI14
F2.0
sI15
F2.0
ssbsg55
g0
(g56
g2
Ntp1126
Rp1127
(dp1128
g60
S'democrat'
p1129
sbsba(iMethods
Instance
p1130
(dp1131
g50
(iMethods
FeatureVector
p1132
(dp1133
g53
(dp1134
I0
F2.0
sI1
F1.0
sI2
F2.0
sI3
F0.0
sI4
F0.0
sI5
F0.0
sI6
F2.0
sI7
F2.0
sI8
F2.0
sI9
F0.0
sI10
F0.0
sI11
F0.0
sI12
F0.0
sI13
F0.0
sI14
F2.0
sI15
F2.0
ssbsg55
g0
(g56
g2
Ntp1135
Rp1136
(dp1137
g60
S'democrat'
p1138
sbsba(iMethods
Instance
p1139
(dp1140
g50
(iMethods
FeatureVector
p1141
(dp1142
g53
(dp1143
I0
F0.0
sI1
F0.0
sI2
F2.0
sI3
F0.0
sI4
F0.0
sI5
F0.0
sI6
F2.0
sI7
F2.0
sI8
F2.0
sI9
F2.0
sI10
F2.0
sI11
F0.0
sI12
F0.0
sI13
F0.0
sI14
F2.0
sI15
F2.0
ssbsg55
g0
(g56
g2
Ntp1144
Rp1145
(dp1146
g60
S'democrat'
p1147
sbsba(iMethods
Instance
p1148
(dp1149
g50
(iMethods
FeatureVector
p1150
(dp1151
g53
(dp1152
I0
F2.0
sI1
F0.0
sI2
F2.0
sI3
F0.0
sI4
F0.0
sI5
F0.0
sI6
F2.0
sI7
F2.0
sI8
F2.0
sI9
F2.0
sI10
F0.0
sI11
F1.0
sI12
F0.0
sI13
F0.0
sI14
F2.0
sI15
F2.0
ssbsg55
g0
(g56
g2
Ntp1153
Rp1154
(dp1155
g60
S'democrat'
p1156
sbsba(iMethods
Instance
p1157
(dp1158
g50
(iMethods
FeatureVector
p1159
(dp1160
g53
(dp1161
I0
F0.0
sI1
F2.0
sI2
F2.0
sI3
F0.0
sI4
F0.0
sI5
F0.0
sI6
F2.0
sI7
F2.0
sI8
F2.0
sI9
F2.0
sI10
F2.0
sI11
F0.0
sI12
F0.0
sI13
F0.0
sI14
F2.0
sI15
F2.0
ssbsg55
g0
(g56
g2
Ntp1162
Rp1163
(dp1164
g60
S'democrat'
p1165
sbsba(iMethods
Instance
p1166
(dp1167
g50
(iMethods
FeatureVector
p1168
(dp1169
g53
(dp1170
I0
F2.0
sI1
F0.0
sI2
F2.0
sI3
F0.0
sI4
F0.0
sI5
F0.0
sI6
F2.0
sI7
F2.0
sI8
F2.0
sI9
F0.0
sI10
F0.0
sI11
F0.0
sI12
F0.0
sI13
F0.0
sI14
F2.0
sI15
F1.0
ssbsg55
g0
(g56
g2
Ntp1171
Rp1172
(dp1173
g60
S'democrat'
p1174
sbsba(iMethods
Instance
p1175
(dp1176
g50
(iMethods
FeatureVector
p1177
(dp1178
g53
(dp1179
I0
F2.0
sI1
F0.0
sI2
F2.0
sI3
F0.0
sI4
F0.0
sI5
F0.0
sI6
F2.0
sI7
F2.0
sI8
F2.0
sI9
F0.0
sI10
F0.0
sI11
F0.0
sI12
F0.0
sI13
F0.0
sI14
F2.0
sI15
F2.0
ssbsg55
g0
(g56
g2
Ntp1180
Rp1181
(dp1182
g60
S'democrat'
p1183
sbsbag115
a(iMethods
Instance
p1184
(dp1185
g50
(iMethods
FeatureVector
p1186
(dp1187
g53
(dp1188
I0
F0.0
sI1
F0.0
sI2
F2.0
sI3
F0.0
sI4
F0.0
sI5
F0.0
sI6
F2.0
sI7
F2.0
sI8
F2.0
sI9
F0.0
sI10
F0.0
sI11
F0.0
sI12
F0.0
sI13
F0.0
sI14
F2.0
sI15
F2.0
ssbsg55
g0
(g56
g2
Ntp1189
Rp1190
(dp1191
g60
S'democrat'
p1192
sbsba(iMethods
Instance
p1193
(dp1194
g50
(iMethods
FeatureVector
p1195
(dp1196
g53
(dp1197
I0
F0.0
sI1
F0.0
sI2
F2.0
sI3
F0.0
sI4
F0.0
sI5
F2.0
sI6
F2.0
sI7
F1.0
sI8
F2.0
sI9
F2.0
sI10
F2.0
sI11
F0.0
sI12
F0.0
sI13
F0.0
sI14
F2.0
sI15
F2.0
ssbsg55
g0
(g56
g2
Ntp1198
Rp1199
(dp1200
g60
S'democrat'
p1201
sbsba(iMethods
Instance
p1202
(dp1203
g50
(iMethods
FeatureVector
p1204
(dp1205
g53
(dp1206
I0
F0.0
sI1
F0.0
sI2
F2.0
sI3
F0.0
sI4
F0.0
sI5
F2.0
sI6
F2.0
sI7
F2.0
sI8
F2.0
sI9
F0.0
sI10
F2.0
sI11
F2.0
sI12
F0.0
sI13
F2.0
sI14
F2.0
sI15
F1.0
ssbsg55
g0
(g56
g2
Ntp1207
Rp1208
(dp1209
g60
S'democrat'
p1210
sbsba(iMethods
Instance
p1211
(dp1212
g50
(iMethods
FeatureVector
p1213
(dp1214
g53
(dp1215
I0
F0.0
sI1
F0.0
sI2
F2.0
sI3
F0.0
sI4
F0.0
sI5
F0.0
sI6
F2.0
sI7
F2.0
sI8
F2.0
sI9
F2.0
sI10
F2.0
sI11
F0.0
sI12
F1.0
sI13
F0.0
sI14
F2.0
sI15
F1.0
ssbsg55
g0
(g56
g2
Ntp1216
Rp1217
(dp1218
g60
S'democrat'
p1219
sbsbag124
a(iMethods
Instance
p1220
(dp1221
g50
(iMethods
FeatureVector
p1222
(dp1223
g53
(dp1224
I0
F0.0
sI1
F0.0
sI2
F2.0
sI3
F0.0
sI4
F0.0
sI5
F0.0
sI6
F2.0
sI7
F2.0
sI8
F2.0
sI9
F0.0
sI10
F0.0
sI11
F0.0
sI12
F0.0
sI13
F2.0
sI14
F2.0
sI15
F2.0
ssbsg55
g0
(g56
g2
Ntp1225
Rp1226
(dp1227
g60
S'democrat'
p1228
sbsba(iMethods
Instance
p1229
(dp1230
g50
(iMethods
FeatureVector
p1231
(dp1232
g53
(dp1233
I0
F2.0
sI1
F2.0
sI2
F2.0
sI3
F0.0
sI4
F0.0
sI5
F0.0
sI6
F2.0
sI7
F2.0
sI8
F2.0
sI9
F0.0
sI10
F0.0
sI11
F0.0
sI12
F0.0
sI13
F0.0
sI14
F2.0
sI15
F2.0
ssbsg55
g0
(g56
g2
Ntp1234
Rp1235
(dp1236
g60
S'democrat'
p1237
sbsba(iMethods
Instance
p1238
(dp1239
g50
(iMethods
FeatureVector
p1240
(dp1241
g53
(dp1242
I0
F2.0
sI1
F0.0
sI2
F2.0
sI3
F0.0
sI4
F0.0
sI5
F2.0
sI6
F2.0
sI7
F2.0
sI8
F2.0
sI9
F2.0
sI10
F2.0
sI11
F0.0
sI12
F0.0
sI13
F0.0
sI14
F2.0
sI15
F2.0
ssbsg55
g0
(g56
g2
Ntp1243
Rp1244
(dp1245
g60
S'democrat'
p1246
sbsba(iMethods
Instance
p1247
(dp1248
g50
(iMethods
FeatureVector
p1249
(dp1250
g53
(dp1251
I0
F2.0
sI1
F0.0
sI2
F2.0
sI3
F0.0
sI4
F0.0
sI5
F0.0
sI6
F2.0
sI7
F2.0
sI8
F2.0
sI9
F2.0
sI10
F0.0
sI11
F0.0
sI12
F0.0
sI13
F0.0
sI14
F2.0
sI15
F2.0
ssbsg55
g0
(g56
g2
Ntp1252
Rp1253
(dp1254
g60
S'democrat'
p1255
sbsba(iMethods
Instance
p1256
(dp1257
g50
(iMethods
FeatureVector
p1258
(dp1259
g53
(dp1260
I0
F0.0
sI1
F0.0
sI2
F2.0
sI3
F0.0
sI4
F0.0
sI5
F2.0
sI6
F2.0
sI7
F2.0
sI8
F2.0
sI9
F2.0
sI10
F0.0
sI11
F2.0
sI12
F0.0
sI13
F0.0
sI14
F0.0
sI15
F2.0
ssbsg55
g0
(g56
g2
Ntp1261
Rp1262
(dp1263
g60
S'democrat'
p1264
sbsba(iMethods
Instance
p1265
(dp1266
g50
(iMethods
FeatureVector
p1267
(dp1268
g53
(dp1269
I0
F0.0
sI1
F0.0
sI2
F2.0
sI3
F0.0
sI4
F0.0
sI5
F0.0
sI6
F2.0
sI7
F2.0
sI8
F2.0
sI9
F0.0
sI10
F0.0
sI11
F1.0
sI12
F0.0
sI13
F0.0
sI14
F2.0
sI15
F2.0
ssbsg55
g0
(g56
g2
Ntp1270
Rp1271
(dp1272
g60
S'democrat'
p1273
sbsba(iMethods
Instance
p1274
(dp1275
g50
(iMethods
FeatureVector
p1276
(dp1277
g53
(dp1278
I0
F2.0
sI1
F2.0
sI2
F2.0
sI3
F0.0
sI4
F0.0
sI5
F0.0
sI6
F2.0
sI7
F2.0
sI8
F2.0
sI9
F2.0
sI10
F2.0
sI11
F0.0
sI12
F0.0
sI13
F0.0
sI14
F0.0
sI15
F2.0
ssbsg55
g0
(g56
g2
Ntp1279
Rp1280
(dp1281
g60
S'democrat'
p1282
sbsba(iMethods
Instance
p1283
(dp1284
g50
(iMethods
FeatureVector
p1285
(dp1286
g53
(dp1287
I0
F0.0
sI1
F0.0
sI2
F2.0
sI3
F0.0
sI4
F0.0
sI5
F2.0
sI6
F2.0
sI7
F2.0
sI8
F2.0
sI9
F0.0
sI10
F0.0
sI11
F0.0
sI12
F0.0
sI13
F0.0
sI14
F2.0
sI15
F2.0
ssbsg55
g0
(g56
g2
Ntp1288
Rp1289
(dp1290
g60
S'democrat'
p1291
sbsba(iMethods
Instance
p1292
(dp1293
g50
(iMethods
FeatureVector
p1294
(dp1295
g53
(dp1296
I0
F0.0
sI1
F0.0
sI2
F2.0
sI3
F0.0
sI4
F0.0
sI5
F0.0
sI6
F2.0
sI7
F2.0
sI8
F2.0
sI9
F0.0
sI10
F2.0
sI11
F0.0
sI12
F0.0
sI13
F0.0
sI14
F2.0
sI15
F2.0
ssbsg55
g0
(g56
g2
Ntp1297
Rp1298
(dp1299
g60
S'democrat'
p1300
sbsba(iMethods
Instance
p1301
(dp1302
g50
(iMethods
FeatureVector
p1303
(dp1304
g53
(dp1305
I0
F0.0
sI1
F2.0
sI2
F2.0
sI3
F0.0
sI4
F0.0
sI5
F2.0
sI6
F0.0
sI7
F2.0
sI8
F2.0
sI9
F0.0
sI10
F2.0
sI11
F0.0
sI12
F2.0
sI13
F0.0
sI14
F2.0
sI15
F2.0
ssbsg55
g0
(g56
g2
Ntp1306
Rp1307
(dp1308
g60
S'democrat'
p1309
sbsba(iMethods
Instance
p1310
(dp1311
g50
(iMethods
FeatureVector
p1312
(dp1313
g53
(dp1314
I0
F2.0
sI1
F2.0
sI2
F2.0
sI3
F0.0
sI4
F2.0
sI5
F2.0
sI6
F0.0
sI7
F0.0
sI8
F1.0
sI9
F2.0
sI10
F0.0
sI11
F0.0
sI12
F0.0
sI13
F2.0
sI14
F2.0
sI15
F1.0
ssbsg55
g0
(g56
g2
Ntp1315
Rp1316
(dp1317
g60
S'democrat'
p1318
sbsba(iMethods
Instance
p1319
(dp1320
g50
(iMethods
FeatureVector
p1321
(dp1322
g53
(dp1323
I0
F2.0
sI1
F1.0
sI2
F2.0
sI3
F0.0
sI4
F0.0
sI5
F0.0
sI6
F2.0
sI7
F2.0
sI8
F2.0
sI9
F0.0
sI10
F1.0
sI11
F0.0
sI12
F0.0
sI13
F0.0
sI14
F2.0
sI15
F1.0
ssbsg55
g0
(g56
g2
Ntp1324
Rp1325
(dp1326
g60
S'democrat'
p1327
sbsba(iMethods
Instance
p1328
(dp1329
g50
(iMethods
FeatureVector
p1330
(dp1331
g53
(dp1332
I0
F0.0
sI1
F2.0
sI2
F2.0
sI3
F0.0
sI4
F0.0
sI5
F0.0
sI6
F0.0
sI7
F2.0
sI8
F2.0
sI9
F0.0
sI10
F2.0
sI11
F0.0
sI12
F0.0
sI13
F2.0
sI14
F2.0
sI15
F2.0
ssbsg55
g0
(g56
g2
Ntp1333
Rp1334
(dp1335
g60
S'democrat'
p1336
sbsba(iMethods
Instance
p1337
(dp1338
g50
(iMethods
FeatureVector
p1339
(dp1340
g53
(dp1341
I0
F0.0
sI1
F0.0
sI2
F2.0
sI3
F0.0
sI4
F0.0
sI5
F0.0
sI6
F2.0
sI7
F2.0
sI8
F2.0
sI9
F0.0
sI10
F0.0
sI11
F0.0
sI12
F0.0
sI13
F0.0
sI14
F2.0
sI15
F1.0
ssbsg55
g0
(g56
g2
Ntp1342
Rp1343
(dp1344
g60
S'democrat'
p1345
sbsba(iMethods
Instance
p1346
(dp1347
g50
(iMethods
FeatureVector
p1348
(dp1349
g53
(dp1350
I0
F0.0
sI1
F2.0
sI2
F2.0
sI3
F0.0
sI4
F2.0
sI5
F2.0
sI6
F0.0
sI7
F0.0
sI8
F0.0
sI9
F0.0
sI10
F2.0
sI11
F0.0
sI12
F0.0
sI13
F0.0
sI14
F2.0
sI15
F1.0
ssbsg55
g0
(g56
g2
Ntp1351
Rp1352
(dp1353
g60
S'democrat'
p1354
sbsba(iMethods
Instance
p1355
(dp1356
g50
(iMethods
FeatureVector
p1357
(dp1358
g53
(dp1359
I0
F2.0
sI1
F0.0
sI2
F2.0
sI3
F0.0
sI4
F0.0
sI5
F0.0
sI6
F2.0
sI7
F2.0
sI8
F2.0
sI9
F0.0
sI10
F2.0
sI11
F0.0
sI12
F0.0
sI13
F0.0
sI14
F2.0
sI15
F1.0
ssbsg55
g0
(g56
g2
Ntp1360
Rp1361
(dp1362
g60
S'democrat'
p1363
sbsba(iMethods
Instance
p1364
(dp1365
g50
(iMethods
FeatureVector
p1366
(dp1367
g53
(dp1368
I0
F0.0
sI1
F0.0
sI2
F2.0
sI3
F0.0
sI4
F0.0
sI5
F2.0
sI6
F2.0
sI7
F2.0
sI8
F2.0
sI9
F0.0
sI10
F2.0
sI11
F0.0
sI12
F0.0
sI13
F2.0
sI14
F2.0
sI15
F2.0
ssbsg55
g0
(g56
g2
Ntp1369
Rp1370
(dp1371
g60
S'democrat'
p1372
sbsba(iMethods
Instance
p1373
(dp1374
g50
(iMethods
FeatureVector
p1375
(dp1376
g53
(dp1377
I0
F2.0
sI1
F0.0
sI2
F2.0
sI3
F0.0
sI4
F0.0
sI5
F0.0
sI6
F2.0
sI7
F2.0
sI8
F2.0
sI9
F0.0
sI10
F0.0
sI11
F0.0
sI12
F0.0
sI13
F0.0
sI14
F1.0
sI15
F2.0
ssbsg55
g0
(g56
g2
Ntp1378
Rp1379
(dp1380
g60
S'democrat'
p1381
sbsba(iMethods
Instance
p1382
(dp1383
g50
(iMethods
FeatureVector
p1384
(dp1385
g53
(dp1386
I0
F0.0
sI1
F2.0
sI2
F2.0
sI3
F0.0
sI4
F0.0
sI5
F0.0
sI6
F2.0
sI7
F2.0
sI8
F0.0
sI9
F0.0
sI10
F2.0
sI11
F0.0
sI12
F0.0
sI13
F0.0
sI14
F2.0
sI15
F1.0
ssbsg55
g0
(g56
g2
Ntp1387
Rp1388
(dp1389
g60
S'democrat'
p1390
sbsba(iMethods
Instance
p1391
(dp1392
g50
(iMethods
FeatureVector
p1393
(dp1394
g53
(dp1395
I0
F0.0
sI1
F0.0
sI2
F2.0
sI3
F0.0
sI4
F0.0
sI5
F2.0
sI6
F2.0
sI7
F2.0
sI8
F2.0
sI9
F2.0
sI10
F0.0
sI11
F2.0
sI12
F0.0
sI13
F2.0
sI14
F2.0
sI15
F1.0
ssbsg55
g0
(g56
g2
Ntp1396
Rp1397
(dp1398
g60
S'democrat'
p1399
sbsba(iMethods
Instance
p1400
(dp1401
g50
(iMethods
FeatureVector
p1402
(dp1403
g53
(dp1404
I0
F0.0
sI1
F0.0
sI2
F2.0
sI3
F0.0
sI4
F0.0
sI5
F0.0
sI6
F2.0
sI7
F2.0
sI8
F2.0
sI9
F0.0
sI10
F0.0
sI11
F0.0
sI12
F0.0
sI13
F0.0
sI14
F2.0
sI15
F2.0
ssbsg55
g0
(g56
g2
Ntp1405
Rp1406
(dp1407
g60
S'democrat'
p1408
sbsba(iMethods
Instance
p1409
(dp1410
g50
(iMethods
FeatureVector
p1411
(dp1412
g53
(dp1413
I0
F2.0
sI1
F0.0
sI2
F2.0
sI3
F0.0
sI4
F0.0
sI5
F2.0
sI6
F2.0
sI7
F2.0
sI8
F0.0
sI9
F0.0
sI10
F0.0
sI11
F2.0
sI12
F2.0
sI13
F0.0
sI14
F0.0
sI15
F2.0
ssbsg55
g0
(g56
g2
Ntp1414
Rp1415
(dp1416
g60
S'democrat'
p1417
sbsba(iMethods
Instance
p1418
(dp1419
g50
(iMethods
FeatureVector
p1420
(dp1421
g53
(dp1422
I0
F2.0
sI1
F2.0
sI2
F2.0
sI3
F0.0
sI4
F0.0
sI5
F0.0
sI6
F2.0
sI7
F2.0
sI8
F1.0
sI9
F2.0
sI10
F0.0
sI11
F0.0
sI12
F0.0
sI13
F0.0
sI14
F2.0
sI15
F1.0
ssbsg55
g0
(g56
g2
Ntp1423
Rp1424
(dp1425
g60
S'democrat'
p1426
sbsba(iMethods
Instance
p1427
(dp1428
g50
(iMethods
FeatureVector
p1429
(dp1430
g53
(dp1431
I0
F2.0
sI1
F0.0
sI2
F2.0
sI3
F0.0
sI4
F0.0
sI5
F0.0
sI6
F2.0
sI7
F2.0
sI8
F2.0
sI9
F2.0
sI10
F2.0
sI11
F0.0
sI12
F0.0
sI13
F2.0
sI14
F2.0
sI15
F2.0
ssbsg55
g0
(g56
g2
Ntp1432
Rp1433
(dp1434
g60
S'democrat'
p1435
sbsbag231
a(iMethods
Instance
p1436
(dp1437
g50
(iMethods
FeatureVector
p1438
(dp1439
g53
(dp1440
I0
F0.0
sI1
F2.0
sI2
F2.0
sI3
F0.0
sI4
F0.0
sI5
F0.0
sI6
F2.0
sI7
F2.0
sI8
F1.0
sI9
F2.0
sI10
F0.0
sI11
F0.0
sI12
F2.0
sI13
F0.0
sI14
F2.0
sI15
F2.0
ssbsg55
g0
(g56
g2
Ntp1441
Rp1442
(dp1443
g60
S'democrat'
p1444
sbsba(iMethods
Instance
p1445
(dp1446
g50
(iMethods
FeatureVector
p1447
(dp1448
g53
(dp1449
I0
F2.0
sI1
F0.0
sI2
F2.0
sI3
F0.0
sI4
F0.0
sI5
F0.0
sI6
F0.0
sI7
F2.0
sI8
F2.0
sI9
F2.0
sI10
F0.0
sI11
F0.0
sI12
F0.0
sI13
F0.0
sI14
F2.0
sI15
F2.0
ssbsg55
g0
(g56
g2
Ntp1450
Rp1451
(dp1452
g60
S'democrat'
p1453
sbsba(iMethods
Instance
p1454
(dp1455
g50
(iMethods
FeatureVector
p1456
(dp1457
g53
(dp1458
I0
F2.0
sI1
F0.0
sI2
F2.0
sI3
F0.0
sI4
F0.0
sI5
F0.0
sI6
F2.0
sI7
F2.0
sI8
F2.0
sI9
F2.0
sI10
F2.0
sI11
F0.0
sI12
F0.0
sI13
F0.0
sI14
F2.0
sI15
F2.0
ssbsg55
g0
(g56
g2
Ntp1459
Rp1460
(dp1461
g60
S'democrat'
p1462
sbsba(iMethods
Instance
p1463
(dp1464
g50
(iMethods
FeatureVector
p1465
(dp1466
g53
(dp1467
I0
F0.0
sI1
F0.0
sI2
F2.0
sI3
F0.0
sI4
F2.0
sI5
F0.0
sI6
F2.0
sI7
F2.0
sI8
F2.0
sI9
F0.0
sI10
F0.0
sI11
F0.0
sI12
F0.0
sI13
F2.0
sI14
F1.0
sI15
F2.0
ssbsg55
g0
(g56
g2
Ntp1468
Rp1469
(dp1470
g60
S'democrat'
p1471
sbsba(iMethods
Instance
p1472
(dp1473
g50
(iMethods
FeatureVector
p1474
(dp1475
g53
(dp1476
I0
F2.0
sI1
F0.0
sI2
F2.0
sI3
F0.0
sI4
F0.0
sI5
F0.0
sI6
F2.0
sI7
F2.0
sI8
F1.0
sI9
F0.0
sI10
F2.0
sI11
F0.0
sI12
F0.0
sI13
F0.0
sI14
F2.0
sI15
F2.0
ssbsg55
g0
(g56
g2
Ntp1477
Rp1478
(dp1479
g60
S'democrat'
p1480
sbsba(iMethods
Instance
p1481
(dp1482
g50
(iMethods
FeatureVector
p1483
(dp1484
g53
(dp1485
I0
F2.0
sI1
F2.0
sI2
F2.0
sI3
F0.0
sI4
F0.0
sI5
F2.0
sI6
F2.0
sI7
F2.0
sI8
F2.0
sI9
F0.0
sI10
F0.0
sI11
F0.0
sI12
F0.0
sI13
F0.0
sI14
F2.0
sI15
F2.0
ssbsg55
g0
(g56
g2
Ntp1486
Rp1487
(dp1488
g60
S'democrat'
p1489
sbsba(iMethods
Instance
p1490
(dp1491
g50
(iMethods
FeatureVector
p1492
(dp1493
g53
(dp1494
I0
F2.0
sI1
F0.0
sI2
F2.0
sI3
F0.0
sI4
F0.0
sI5
F0.0
sI6
F2.0
sI7
F2.0
sI8
F2.0
sI9
F2.0
sI10
F0.0
sI11
F0.0
sI12
F0.0
sI13
F0.0
sI14
F0.0
sI15
F2.0
ssbsg55
g0
(g56
g2
Ntp1495
Rp1496
(dp1497
g60
S'democrat'
p1498
sbsba(iMethods
Instance
p1499
(dp1500
g50
(iMethods
FeatureVector
p1501
(dp1502
g53
(dp1503
I0
F2.0
sI1
F0.0
sI2
F2.0
sI3
F0.0
sI4
F0.0
sI5
F0.0
sI6
F2.0
sI7
F2.0
sI8
F2.0
sI9
F2.0
sI10
F0.0
sI11
F0.0
sI12
F0.0
sI13
F2.0
sI14
F2.0
sI15
F2.0
ssbsg55
g0
(g56
g2
Ntp1504
Rp1505
(dp1506
g60
S'democrat'
p1507
sbsba(iMethods
Instance
p1508
(dp1509
g50
(iMethods
FeatureVector
p1510
(dp1511
g53
(dp1512
I0
F0.0
sI1
F0.0
sI2
F2.0
sI3
F0.0
sI4
F0.0
sI5
F0.0
sI6
F2.0
sI7
F2.0
sI8
F2.0
sI9
F0.0
sI10
F2.0
sI11
F0.0
sI12
F0.0
sI13
F0.0
sI14
F2.0
sI15
F2.0
ssbsg55
g0
(g56
g2
Ntp1513
Rp1514
(dp1515
g60
S'democrat'
p1516
sbsba(iMethods
Instance
p1517
(dp1518
g50
(iMethods
FeatureVector
p1519
(dp1520
g53
(dp1521
I0
F2.0
sI1
F0.0
sI2
F2.0
sI3
F0.0
sI4
F0.0
sI5
F0.0
sI6
F2.0
sI7
F2.0
sI8
F2.0
sI9
F0.0
sI10
F0.0
sI11
F0.0
sI12
F0.0
sI13
F0.0
sI14
F0.0
sI15
F2.0
ssbsg55
g0
(g56
g2
Ntp1522
Rp1523
(dp1524
g60
S'democrat'
p1525
sbsba(iMethods
Instance
p1526
(dp1527
g50
(iMethods
FeatureVector
p1528
(dp1529
g53
(dp1530
I0
F2.0
sI1
F0.0
sI2
F2.0
sI3
F0.0
sI4
F0.0
sI5
F0.0
sI6
F2.0
sI7
F2.0
sI8
F2.0
sI9
F2.0
sI10
F0.0
sI11
F0.0
sI12
F0.0
sI13
F0.0
sI14
F0.0
sI15
F2.0
ssbsg55
g0
(g56
g2
Ntp1531
Rp1532
(dp1533
g60
S'democrat'
p1534
sbsba(iMethods
Instance
p1535
(dp1536
g50
(iMethods
FeatureVector
p1537
(dp1538
g53
(dp1539
I0
F2.0
sI1
F0.0
sI2
F2.0
sI3
F0.0
sI4
F0.0
sI5
F1.0
sI6
F2.0
sI7
F2.0
sI8
F2.0
sI9
F0.0
sI10
F1.0
sI11
F1.0
sI12
F0.0
sI13
F1.0
sI14
F1.0
sI15
F1.0
ssbsg55
g0
(g56
g2
Ntp1540
Rp1541
(dp1542
g60
S'democrat'
p1543
sbsba(iMethods
Instance
p1544
(dp1545
g50
(iMethods
FeatureVector
p1546
(dp1547
g53
(dp1548
I0
F2.0
sI1
F0.0
sI2
F2.0
sI3
F0.0
sI4
F0.0
sI5
F0.0
sI6
F2.0
sI7
F2.0
sI8
F2.0
sI9
F2.0
sI10
F0.0
sI11
F0.0
sI12
F1.0
sI13
F0.0
sI14
F2.0
sI15
F2.0
ssbsg55
g0
(g56
g2
Ntp1549
Rp1550
(dp1551
g60
S'democrat'
p1552
sbsba(iMethods
Instance
p1553
(dp1554
g50
(iMethods
FeatureVector
p1555
(dp1556
g53
(dp1557
I0
F2.0
sI1
F0.0
sI2
F2.0
sI3
F0.0
sI4
F0.0
sI5
F0.0
sI6
F2.0
sI7
F2.0
sI8
F2.0
sI9
F0.0
sI10
F0.0
sI11
F0.0
sI12
F0.0
sI13
F0.0
sI14
F2.0
sI15
F1.0
ssbsg55
g0
(g56
g2
Ntp1558
Rp1559
(dp1560
g60
S'democrat'
p1561
sbsba(iMethods
Instance
p1562
(dp1563
g50
(iMethods
FeatureVector
p1564
(dp1565
g53
(dp1566
I0
F2.0
sI1
F0.0
sI2
F2.0
sI3
F0.0
sI4
F0.0
sI5
F0.0
sI6
F2.0
sI7
F2.0
sI8
F2.0
sI9
F0.0
sI10
F0.0
sI11
F0.0
sI12
F0.0
sI13
F0.0
sI14
F2.0
sI15
F1.0
ssbsg55
g0
(g56
g2
Ntp1567
Rp1568
(dp1569
g60
S'democrat'
p1570
sbsba(iMethods
Instance
p1571
(dp1572
g50
(iMethods
FeatureVector
p1573
(dp1574
g53
(dp1575
I0
F2.0
sI1
F0.0
sI2
F2.0
sI3
F0.0
sI4
F0.0
sI5
F0.0
sI6
F2.0
sI7
F2.0
sI8
F2.0
sI9
F2.0
sI10
F0.0
sI11
F0.0
sI12
F0.0
sI13
F0.0
sI14
F0.0
sI15
F2.0
ssbsg55
g0
(g56
g2
Ntp1576
Rp1577
(dp1578
g60
S'democrat'
p1579
sbsbag71
a(iMethods
Instance
p1580
(dp1581
g50
(iMethods
FeatureVector
p1582
(dp1583
g53
(dp1584
I0
F2.0
sI1
F0.0
sI2
F2.0
sI3
F0.0
sI4
F0.0
sI5
F0.0
sI6
F2.0
sI7
F2.0
sI8
F2.0
sI9
F0.0
sI10
F0.0
sI11
F0.0
sI12
F0.0
sI13
F0.0
sI14
F2.0
sI15
F1.0
ssbsg55
g0
(g56
g2
Ntp1585
Rp1586
(dp1587
g60
S'democrat'
p1588
sbsba(iMethods
Instance
p1589
(dp1590
g50
(iMethods
FeatureVector
p1591
(dp1592
g53
(dp1593
I0
F2.0
sI1
F0.0
sI2
F2.0
sI3
F0.0
sI4
F0.0
sI5
F0.0
sI6
F2.0
sI7
F2.0
sI8
F2.0
sI9
F0.0
sI10
F0.0
sI11
F0.0
sI12
F0.0
sI13
F0.0
sI14
F0.0
sI15
F2.0
ssbsg55
g0
(g56
g2
Ntp1594
Rp1595
(dp1596
g60
S'democrat'
p1597
sbsba(iMethods
Instance
p1598
(dp1599
g50
(iMethods
FeatureVector
p1600
(dp1601
g53
(dp1602
I0
F2.0
sI1
F2.0
sI2
F2.0
sI3
F0.0
sI4
F0.0
sI5
F0.0
sI6
F2.0
sI7
F2.0
sI8
F2.0
sI9
F0.0
sI10
F0.0
sI11
F0.0
sI12
F0.0
sI13
F0.0
sI14
F2.0
sI15
F2.0
ssbsg55
g0
(g56
g2
Ntp1603
Rp1604
(dp1605
g60
S'democrat'
p1606
sbsba(iMethods
Instance
p1607
(dp1608
g50
(iMethods
FeatureVector
p1609
(dp1610
g53
(dp1611
I0
F0.0
sI1
F2.0
sI2
F2.0
sI3
F0.0
sI4
F0.0
sI5
F2.0
sI6
F2.0
sI7
F2.0
sI8
F2.0
sI9
F0.0
sI10
F1.0
sI11
F0.0
sI12
F0.0
sI13
F0.0
sI14
F0.0
sI15
F2.0
ssbsg55
g0
(g56
g2
Ntp1612
Rp1613
(dp1614
g60
S'democrat'
p1615
sbsba(iMethods
Instance
p1616
(dp1617
g50
(iMethods
FeatureVector
p1618
(dp1619
g53
(dp1620
I0
F2.0
sI1
F0.0
sI2
F2.0
sI3
F0.0
sI4
F0.0
sI5
F0.0
sI6
F2.0
sI7
F2.0
sI8
F2.0
sI9
F2.0
sI10
F0.0
sI11
F0.0
sI12
F0.0
sI13
F0.0
sI14
F2.0
sI15
F1.0
ssbsg55
g0
(g56
g2
Ntp1621
Rp1622
(dp1623
g60
S'democrat'
p1624
sbsba(iMethods
Instance
p1625
(dp1626
g50
(iMethods
FeatureVector
p1627
(dp1628
g53
(dp1629
I0
F0.0
sI1
F0.0
sI2
F2.0
sI3
F0.0
sI4
F2.0
sI5
F2.0
sI6
F0.0
sI7
F0.0
sI8
F0.0
sI9
F0.0
sI10
F1.0
sI11
F0.0
sI12
F2.0
sI13
F2.0
sI14
F0.0
sI15
F0.0
ssbsg55
g0
(g56
g2
Ntp1630
Rp1631
(dp1632
g60
S'democrat'
p1633
sbsba(iMethods
Instance
p1634
(dp1635
g50
(iMethods
FeatureVector
p1636
(dp1637
g53
(dp1638
I0
F0.0
sI1
F0.0
sI2
F2.0
sI3
F0.0
sI4
F0.0
sI5
F0.0
sI6
F2.0
sI7
F2.0
sI8
F2.0
sI9
F2.0
sI10
F0.0
sI11
F0.0
sI12
F0.0
sI13
F2.0
sI14
F0.0
sI15
F2.0
ssbsg55
g0
(g56
g2
Ntp1639
Rp1640
(dp1641
g60
S'democrat'
p1642
sbsba(iMethods
Instance
p1643
(dp1644
g50
(iMethods
FeatureVector
p1645
(dp1646
g53
(dp1647
I0
F0.0
sI1
F0.0
sI2
F2.0
sI3
F0.0
sI4
F0.0
sI5
F2.0
sI6
F2.0
sI7
F2.0
sI8
F2.0
sI9
F2.0
sI10
F2.0
sI11
F0.0
sI12
F0.0
sI13
F0.0
sI14
F1.0
sI15
F2.0
ssbsg55
g0
(g56
g2
Ntp1648
Rp1649
(dp1650
g60
S'democrat'
p1651
sbsba(iMethods
Instance
p1652
(dp1653
g50
(iMethods
FeatureVector
p1654
(dp1655
g53
(dp1656
I0
F0.0
sI1
F0.0
sI2
F2.0
sI3
F0.0
sI4
F0.0
sI5
F2.0
sI6
F2.0
sI7
F2.0
sI8
F2.0
sI9
F2.0
sI10
F2.0
sI11
F0.0
sI12
F0.0
sI13
F0.0
sI14
F2.0
sI15
F2.0
ssbsg55
g0
(g56
g2
Ntp1657
Rp1658
(dp1659
g60
S'democrat'
p1660
sbsba(iMethods
Instance
p1661
(dp1662
g50
(iMethods
FeatureVector
p1663
(dp1664
g53
(dp1665
I0
F0.0
sI1
F0.0
sI2
F2.0
sI3
F0.0
sI4
F0.0
sI5
F2.0
sI6
F1.0
sI7
F2.0
sI8
F1.0
sI9
F2.0
sI10
F2.0
sI11
F2.0
sI12
F0.0
sI13
F2.0
sI14
F2.0
sI15
F1.0
ssbsg55
g0
(g56
g2
Ntp1666
Rp1667
(dp1668
g60
S'democrat'
p1669
sbsba(iMethods
Instance
p1670
(dp1671
g50
(iMethods
FeatureVector
p1672
(dp1673
g53
(dp1674
I0
F2.0
sI1
F2.0
sI2
F2.0
sI3
F0.0
sI4
F2.0
sI5
F2.0
sI6
F0.0
sI7
F2.0
sI8
F0.0
sI9
F2.0
sI10
F2.0
sI11
F0.0
sI12
F2.0
sI13
F2.0
sI14
F2.0
sI15
F2.0
ssbsg55
g0
(g56
g2
Ntp1675
Rp1676
(dp1677
g60
S'democrat'
p1678
sbsba(iMethods
Instance
p1679
(dp1680
g50
(iMethods
FeatureVector
p1681
(dp1682
g53
(dp1683
I0
F2.0
sI1
F2.0
sI2
F2.0
sI3
F0.0
sI4
F2.0
sI5
F2.0
sI6
F0.0
sI7
F2.0
sI8
F0.0
sI9
F2.0
sI10
F2.0
sI11
F0.0
sI12
F2.0
sI13
F2.0
sI14
F0.0
sI15
F1.0
ssbsg55
g0
(g56
g2
Ntp1684
Rp1685
(dp1686
g60
S'democrat'
p1687
sbsba(iMethods
Instance
p1688
(dp1689
g50
(iMethods
FeatureVector
p1690
(dp1691
g53
(dp1692
I0
F2.0
sI1
F0.0
sI2
F2.0
sI3
F0.0
sI4
F1.0
sI5
F2.0
sI6
F1.0
sI7
F2.0
sI8
F2.0
sI9
F2.0
sI10
F0.0
sI11
F0.0
sI12
F2.0
sI13
F2.0
sI14
F0.0
sI15
F2.0
ssbsg55
g0
(g56
g2
Ntp1693
Rp1694
(dp1695
g60
S'democrat'
p1696
sbsba(iMethods
Instance
p1697
(dp1698
g50
(iMethods
FeatureVector
p1699
(dp1700
g53
(dp1701
I0
F2.0
sI1
F0.0
sI2
F2.0
sI3
F0.0
sI4
F0.0
sI5
F2.0
sI6
F2.0
sI7
F2.0
sI8
F2.0
sI9
F2.0
sI10
F0.0
sI11
F1.0
sI12
F0.0
sI13
F2.0
sI14
F0.0
sI15
F2.0
ssbsg55
g0
(g56
g2
Ntp1702
Rp1703
(dp1704
g60
S'democrat'
p1705
sbsba(iMethods
Instance
p1706
(dp1707
g50
(iMethods
FeatureVector
p1708
(dp1709
g53
(dp1710
I0
F2.0
sI1
F0.0
sI2
F2.0
sI3
F0.0
sI4
F0.0
sI5
F2.0
sI6
F2.0
sI7
F2.0
sI8
F0.0
sI9
F2.0
sI10
F2.0
sI11
F0.0
sI12
F2.0
sI13
F2.0
sI14
F2.0
sI15
F2.0
ssbsg55
g0
(g56
g2
Ntp1711
Rp1712
(dp1713
g60
S'democrat'
p1714
sbsba(iMethods
Instance
p1715
(dp1716
g50
(iMethods
FeatureVector
p1717
(dp1718
g53
(dp1719
I0
F2.0
sI1
F2.0
sI2
F2.0
sI3
F0.0
sI4
F0.0
sI5
F2.0
sI6
F2.0
sI7
F2.0
sI8
F2.0
sI9
F2.0
sI10
F2.0
sI11
F0.0
sI12
F2.0
sI13
F2.0
sI14
F2.0
sI15
F2.0
ssbsg55
g0
(g56
g2
Ntp1720
Rp1721
(dp1722
g60
S'democrat'
p1723
sbsba(iMethods
Instance
p1724
(dp1725
g50
(iMethods
FeatureVector
p1726
(dp1727
g53
(dp1728
I0
F0.0
sI1
F2.0
sI2
F2.0
sI3
F0.0
sI4
F0.0
sI5
F2.0
sI6
F2.0
sI7
F2.0
sI8
F0.0
sI9
F2.0
sI10
F2.0
sI11
F0.0
sI12
F2.0
sI13
F2.0
sI14
F0.0
sI15
F1.0
ssbsg55
g0
(g56
g2
Ntp1729
Rp1730
(dp1731
g60
S'democrat'
p1732
sbsba(iMethods
Instance
p1733
(dp1734
g50
(iMethods
FeatureVector
p1735
(dp1736
g53
(dp1737
I0
F2.0
sI1
F2.0
sI2
F2.0
sI3
F0.0
sI4
F0.0
sI5
F2.0
sI6
F2.0
sI7
F2.0
sI8
F2.0
sI9
F2.0
sI10
F0.0
sI11
F0.0
sI12
F1.0
sI13
F0.0
sI14
F2.0
sI15
F1.0
ssbsg55
g0
(g56
g2
Ntp1738
Rp1739
(dp1740
g60
S'democrat'
p1741
sbsbag133
a(iMethods
Instance
p1742
(dp1743
g50
(iMethods
FeatureVector
p1744
(dp1745
g53
(dp1746
I0
F0.0
sI1
F2.0
sI2
F2.0
sI3
F0.0
sI4
F0.0
sI5
F2.0
sI6
F2.0
sI7
F2.0
sI8
F2.0
sI9
F2.0
sI10
F0.0
sI11
F0.0
sI12
F2.0
sI13
F2.0
sI14
F2.0
sI15
F2.0
ssbsg55
g0
(g56
g2
Ntp1747
Rp1748
(dp1749
g60
S'democrat'
p1750
sbsba(iMethods
Instance
p1751
(dp1752
g50
(iMethods
FeatureVector
p1753
(dp1754
g53
(dp1755
I0
F0.0
sI1
F0.0
sI2
F1.0
sI3
F0.0
sI4
F0.0
sI5
F2.0
sI6
F2.0
sI7
F2.0
sI8
F2.0
sI9
F0.0
sI10
F0.0
sI11
F0.0
sI12
F0.0
sI13
F0.0
sI14
F2.0
sI15
F2.0
ssbsg55
g0
(g56
g2
Ntp1756
Rp1757
(dp1758
g60
S'democrat'
p1759
sbsba(iMethods
Instance
p1760
(dp1761
g50
(iMethods
FeatureVector
p1762
(dp1763
g53
(dp1764
I0
F2.0
sI1
F0.0
sI2
F2.0
sI3
F0.0
sI4
F0.0
sI5
F2.0
sI6
F2.0
sI7
F2.0
sI8
F2.0
sI9
F0.0
sI10
F0.0
sI11
F0.0
sI12
F0.0
sI13
F2.0
sI14
F0.0
sI15
F1.0
ssbsg55
g0
(g56
g2
Ntp1765
Rp1766
(dp1767
g60
S'democrat'
p1768
sbsbag142
a(iMethods
Instance
p1769
(dp1770
g50
(iMethods
FeatureVector
p1771
(dp1772
g53
(dp1773
I0
F0.0
sI1
F0.0
sI2
F2.0
sI3
F0.0
sI4
F0.0
sI5
F2.0
sI6
F2.0
sI7
F2.0
sI8
F2.0
sI9
F2.0
sI10
F0.0
sI11
F0.0
sI12
F2.0
sI13
F0.0
sI14
F0.0
sI15
F2.0
ssbsg55
g0
(g56
g2
Ntp1774
Rp1775
(dp1776
g60
S'democrat'
p1777
sbsba(iMethods
Instance
p1778
(dp1779
g50
(iMethods
FeatureVector
p1780
(dp1781
g53
(dp1782
I0
F2.0
sI1
F2.0
sI2
F2.0
sI3
F0.0
sI4
F0.0
sI5
F0.0
sI6
F2.0
sI7
F2.0
sI8
F2.0
sI9
F2.0
sI10
F0.0
sI11
F0.0
sI12
F0.0
sI13
F0.0
sI14
F2.0
sI15
F2.0
ssbsg55
g0
(g56
g2
Ntp1783
Rp1784
(dp1785
g60
S'democrat'
p1786
sbsbag240
ag151
a(iMethods
Instance
p1787
(dp1788
g50
(iMethods
FeatureVector
p1789
(dp1790
g53
(dp1791
I0
F0.0
sI1
F0.0
sI2
F2.0
sI3
F0.0
sI4
F0.0
sI5
F0.0
sI6
F2.0
sI7
F2.0
sI8
F2.0
sI9
F0.0
sI10
F0.0
sI11
F0.0
sI12
F0.0
sI13
F0.0
sI14
F2.0
sI15
F1.0
ssbsg55
g0
(g56
g2
Ntp1792
Rp1793
(dp1794
g60
S'democrat'
p1795
sbsba(iMethods
Instance
p1796
(dp1797
g50
(iMethods
FeatureVector
p1798
(dp1799
g53
(dp1800
I0
F2.0
sI1
F0.0
sI2
F2.0
sI3
F0.0
sI4
F0.0
sI5
F0.0
sI6
F2.0
sI7
F2.0
sI8
F2.0
sI9
F0.0
sI10
F0.0
sI11
F0.0
sI12
F0.0
sI13
F0.0
sI14
F2.0
sI15
F1.0
ssbsg55
g0
(g56
g2
Ntp1801
Rp1802
(dp1803
g60
S'democrat'
p1804
sbsba(iMethods
Instance
p1805
(dp1806
g50
(iMethods
FeatureVector
p1807
(dp1808
g53
(dp1809
I0
F0.0
sI1
F2.0
sI2
F2.0
sI3
F0.0
sI4
F0.0
sI5
F2.0
sI6
F0.0
sI7
F2.0
sI8
F2.0
sI9
F2.0
sI10
F0.0
sI11
F0.0
sI12
F2.0
sI13
F2.0
sI14
F0.0
sI15
F2.0
ssbsg55
g0
(g56
g2
Ntp1810
Rp1811
(dp1812
g60
S'democrat'
p1813
sbsba(iMethods
Instance
p1814
(dp1815
g50
(iMethods
FeatureVector
p1816
(dp1817
g53
(dp1818
I0
F2.0
sI1
F2.0
sI2
F2.0
sI3
F0.0
sI4
F0.0
sI5
F0.0
sI6
F2.0
sI7
F2.0
sI8
F2.0
sI9
F2.0
sI10
F0.0
sI11
F0.0
sI12
F2.0
sI13
F0.0
sI14
F0.0
sI15
F2.0
ssbsg55
g0
(g56
g2
Ntp1819
Rp1820
(dp1821
g60
S'democrat'
p1822
sbsba(iMethods
Instance
p1823
(dp1824
g50
(iMethods
FeatureVector
p1825
(dp1826
g53
(dp1827
I0
F2.0
sI1
F2.0
sI2
F2.0
sI3
F0.0
sI4
F1.0
sI5
F2.0
sI6
F0.0
sI7
F1.0
sI8
F0.0
sI9
F0.0
sI10
F2.0
sI11
F0.0
sI12
F2.0
sI13
F2.0
sI14
F0.0
sI15
F1.0
ssbsg55
g0
(g56
g2
Ntp1828
Rp1829
(dp1830
g60
S'democrat'
p1831
sbsba(iMethods
Instance
p1832
(dp1833
g50
(iMethods
FeatureVector
p1834
(dp1835
g53
(dp1836
I0
F2.0
sI1
F2.0
sI2
F2.0
sI3
F0.0
sI4
F2.0
sI5
F2.0
sI6
F0.0
sI7
F2.0
sI8
F1.0
sI9
F2.0
sI10
F0.0
sI11
F0.0
sI12
F2.0
sI13
F2.0
sI14
F0.0
sI15
F1.0
ssbsg55
g0
(g56
g2
Ntp1837
Rp1838
(dp1839
g60
S'democrat'
p1840
sbsbag249
a(iMethods
Instance
p1841
(dp1842
g50
(iMethods
FeatureVector
p1843
(dp1844
g53
(dp1845
I0
F2.0
sI1
F2.0
sI2
F2.0
sI3
F0.0
sI4
F0.0
sI5
F0.0
sI6
F2.0
sI7
F2.0
sI8
F2.0
sI9
F0.0
sI10
F2.0
sI11
F0.0
sI12
F0.0
sI13
F0.0
sI14
F0.0
sI15
F2.0
ssbsg55
g0
(g56
g2
Ntp1846
Rp1847
(dp1848
g60
S'democrat'
p1849
sbsba(iMethods
Instance
p1850
(dp1851
g50
(iMethods
FeatureVector
p1852
(dp1853
g53
(dp1854
I0
F2.0
sI1
F1.0
sI2
F2.0
sI3
F0.0
sI4
F0.0
sI5
F2.0
sI6
F2.0
sI7
F2.0
sI8
F2.0
sI9
F2.0
sI10
F0.0
sI11
F0.0
sI12
F0.0
sI13
F0.0
sI14
F2.0
sI15
F1.0
ssbsg55
g0
(g56
g2
Ntp1855
Rp1856
(dp1857
g60
S'democrat'
p1858
sbsba(iMethods
Instance
p1859
(dp1860
g50
(iMethods
FeatureVector
p1861
(dp1862
g53
(dp1863
I0
F2.0
sI1
F1.0
sI2
F2.0
sI3
F0.0
sI4
F0.0
sI5
F0.0
sI6
F2.0
sI7
F2.0
sI8
F2.0
sI9
F0.0
sI10
F0.0
sI11
F0.0
sI12
F0.0
sI13
F0.0
sI14
F2.0
sI15
F1.0
ssbsg55
g0
(g56
g2
Ntp1864
Rp1865
(dp1866
g60
S'democrat'
p1867
sbsba(iMethods
Instance
p1868
(dp1869
g50
(iMethods
FeatureVector
p1870
(dp1871
g53
(dp1872
I0
F2.0
sI1
F0.0
sI2
F2.0
sI3
F0.0
sI4
F0.0
sI5
F0.0
sI6
F2.0
sI7
F2.0
sI8
F2.0
sI9
F0.0
sI10
F2.0
sI11
F0.0
sI12
F0.0
sI13
F0.0
sI14
F2.0
sI15
F1.0
ssbsg55
g0
(g56
g2
Ntp1873
Rp1874
(dp1875
g60
S'democrat'
p1876
sbsba(iMethods
Instance
p1877
(dp1878
g50
(iMethods
FeatureVector
p1879
(dp1880
g53
(dp1881
I0
F0.0
sI1
F0.0
sI2
F2.0
sI3
F0.0
sI4
F0.0
sI5
F0.0
sI6
F2.0
sI7
F2.0
sI8
F2.0
sI9
F0.0
sI10
F0.0
sI11
F0.0
sI12
F0.0
sI13
F0.0
sI14
F2.0
sI15
F2.0
ssbsg55
g0
(g56
g2
Ntp1882
Rp1883
(dp1884
g60
S'democrat'
p1885
sbsba(iMethods
Instance
p1886
(dp1887
g50
(iMethods
FeatureVector
p1888
(dp1889
g53
(dp1890
I0
F0.0
sI1
F2.0
sI2
F2.0
sI3
F0.0
sI4
F0.0
sI5
F2.0
sI6
F2.0
sI7
F2.0
sI8
F1.0
sI9
F0.0
sI10
F2.0
sI11
F2.0
sI12
F0.0
sI13
F0.0
sI14
F2.0
sI15
F2.0
ssbsg55
g0
(g56
g2
Ntp1891
Rp1892
(dp1893
g60
S'democrat'
p1894
sbsba(iMethods
Instance
p1895
(dp1896
g50
(iMethods
FeatureVector
p1897
(dp1898
g53
(dp1899
I0
F0.0
sI1
F0.0
sI2
F2.0
sI3
F0.0
sI4
F0.0
sI5
F2.0
sI6
F2.0
sI7
F2.0
sI8
F0.0
sI9
F0.0
sI10
F2.0
sI11
F0.0
sI12
F0.0
sI13
F2.0
sI14
F1.0
sI15
F2.0
ssbsg55
g0
(g56
g2
Ntp1900
Rp1901
(dp1902
g60
S'democrat'
p1903
sbsba(iMethods
Instance
p1904
(dp1905
g50
(iMethods
FeatureVector
p1906
(dp1907
g53
(dp1908
I0
F2.0
sI1
F0.0
sI2
F2.0
sI3
F0.0
sI4
F0.0
sI5
F0.0
sI6
F2.0
sI7
F2.0
sI8
F2.0
sI9
F0.0
sI10
F0.0
sI11
F0.0
sI12
F0.0
sI13
F0.0
sI14
F2.0
sI15
F2.0
ssbsg55
g0
(g56
g2
Ntp1909
Rp1910
(dp1911
g60
S'democrat'
p1912
sbsba(iMethods
Instance
p1913
(dp1914
g50
(iMethods
FeatureVector
p1915
(dp1916
g53
(dp1917
I0
F2.0
sI1
F0.0
sI2
F2.0
sI3
F0.0
sI4
F0.0
sI5
F0.0
sI6
F2.0
sI7
F2.0
sI8
F2.0
sI9
F2.0
sI10
F0.0
sI11
F0.0
sI12
F0.0
sI13
F2.0
sI14
F2.0
sI15
F2.0
ssbsg55
g0
(g56
g2
Ntp1918
Rp1919
(dp1920
g60
S'democrat'
p1921
sbsba(iMethods
Instance
p1922
(dp1923
g50
(iMethods
FeatureVector
p1924
(dp1925
g53
(dp1926
I0
F0.0
sI1
F2.0
sI2
F2.0
sI3
F0.0
sI4
F2.0
sI5
F1.0
sI6
F2.0
sI7
F0.0
sI8
F0.0
sI9
F2.0
sI10
F2.0
sI11
F0.0
sI12
F2.0
sI13
F0.0
sI14
F2.0
sI15
F2.0
ssbsg55
g0
(g56
g2
Ntp1927
Rp1928
(dp1929
g60
S'democrat'
p1930
sbsba(iMethods
Instance
p1931
(dp1932
g50
(iMethods
FeatureVector
p1933
(dp1934
g53
(dp1935
I0
F0.0
sI1
F0.0
sI2
F2.0
sI3
F0.0
sI4
F0.0
sI5
F0.0
sI6
F2.0
sI7
F2.0
sI8
F2.0
sI9
F2.0
sI10
F2.0
sI11
F0.0
sI12
F0.0
sI13
F0.0
sI14
F2.0
sI15
F2.0
ssbsg55
g0
(g56
g2
Ntp1936
Rp1937
(dp1938
g60
S'democrat'
p1939
sbsbasba(iNode
Node
p1940
(dp1941
g13
(lp1942
g27
(g28
(S'S8'
p1943
I0
I1
tp1944
Rp1945
(I3
S'|'
p1946
NNNI8
I1
I0
tp1947
bS'democrat'
p1948
tp1949
Rp1950
ag27
(g28
(S'S10'
p1951
I0
I1
tp1952
Rp1953
(I3
S'|'
p1954
NNNI10
I1
I0
tp1955
bS'republican'
p1956
tp1957
Rp1958
ag27
(g28
(S'S8'
p1959
I0
I1
tp1960
Rp1961
(I3
S'|'
p1962
NNNI8
I1
I0
tp1963
bS'democrat'
p1964
tp1965
Rp1966
asg45
I8
sg46
(lp1967
(iMethods
Instance
p1968
(dp1969
g50
(iMethods
FeatureVector
p1970
(dp1971
g53
(dp1972
I0
F1.0
sI1
F2.0
sI2
F2.0
sI3
F1.0
sI4
F2.0
sI5
F2.0
sI6
F0.0
sI7
F0.0
sI8
F0.0
sI9
F0.0
sI10
F2.0
sI11
F0.0
sI12
F2.0
sI13
F2.0
sI14
F0.0
sI15
F0.0
ssbsg55
g0
(g56
g2
Ntp1973
Rp1974
(dp1975
g60
S'democrat'
p1976
sbsba(iMethods
Instance
p1977
(dp1978
g50
(iMethods
FeatureVector
p1979
(dp1980
g53
(dp1981
I0
F1.0
sI1
F1.0
sI2
F1.0
sI3
F1.0
sI4
F0.0
sI5
F2.0
sI6
F2.0
sI7
F2.0
sI8
F2.0
sI9
F2.0
sI10
F1.0
sI11
F0.0
sI12
F2.0
sI13
F2.0
sI14
F0.0
sI15
F1.0
ssbsg55
g0
(g56
g2
Ntp1982
Rp1983
(dp1984
g60
S'democrat'
p1985
sbsba(iMethods
Instance
p1986
(dp1987
g50
(iMethods
FeatureVector
p1988
(dp1989
g53
(dp1990
I0
F0.0
sI1
F1.0
sI2
F1.0
sI3
F1.0
sI4
F1.0
sI5
F1.0
sI6
F1.0
sI7
F1.0
sI8
F1.0
sI9
F1.0
sI10
F1.0
sI11
F1.0
sI12
F1.0
sI13
F2.0
sI14
F1.0
sI15
F1.0
ssbsg55
g0
(g56
g2
Ntp1991
Rp1992
(dp1993
g60
S'republican'
p1994
sbsba(iMethods
Instance
p1995
(dp1996
g50
(iMethods
FeatureVector
p1997
(dp1998
g53
(dp1999
I0
F1.0
sI1
F1.0
sI2
F1.0
sI3
F1.0
sI4
F1.0
sI5
F1.0
sI6
F1.0
sI7
F1.0
sI8
F2.0
sI9
F1.0
sI10
F1.0
sI11
F1.0
sI12
F1.0
sI13
F1.0
sI14
F1.0
sI15
F1.0
ssbsg55
g0
(g56
g2
Ntp2000
Rp2001
(dp2002
g60
S'democrat'
p2003
sbsba(iMethods
Instance
p2004
(dp2005
g50
(iMethods
FeatureVector
p2006
(dp2007
g53
(dp2008
I0
F1.0
sI1
F1.0
sI2
F1.0
sI3
F1.0
sI4
F1.0
sI5
F1.0
sI6
F1.0
sI7
F1.0
sI8
F1.0
sI9
F1.0
sI10
F1.0
sI11
F1.0
sI12
F1.0
sI13
F1.0
sI14
F1.0
sI15
F1.0
ssbsg55
g0
(g56
g2
Ntp2009
Rp2010
(dp2011
g60
S'republican'
p2012
sbsba(iMethods
Instance
p2013
(dp2014
g50
(iMethods
FeatureVector
p2015
(dp2016
g53
(dp2017
I0
F2.0
sI1
F2.0
sI2
F2.0
sI3
F1.0
sI4
F0.0
sI5
F2.0
sI6
F2.0
sI7
F2.0
sI8
F2.0
sI9
F0.0
sI10
F2.0
sI11
F0.0
sI12
F2.0
sI13
F0.0
sI14
F1.0
sI15
F2.0
ssbsg55
g0
(g56
g2
Ntp2018
Rp2019
(dp2020
g60
S'democrat'
p2021
sbsba(iMethods
Instance
p2022
(dp2023
g50
(iMethods
FeatureVector
p2024
(dp2025
g53
(dp2026
I0
F0.0
sI1
F1.0
sI2
F2.0
sI3
F1.0
sI4
F0.0
sI5
F2.0
sI6
F2.0
sI7
F2.0
sI8
F2.0
sI9
F2.0
sI10
F2.0
sI11
F0.0
sI12
F1.0
sI13
F1.0
sI14
F2.0
sI15
F2.0
ssbsg55
g0
(g56
g2
Ntp2027
Rp2028
(dp2029
g60
S'democrat'
p2030
sbsbasba(iNode
Node
p2031
(dp2032
g13
(lp2033
(iNode
Node
p2034
(dp2035
g13
(lp2036
g27
(g28
(S'S10'
p2037
I0
I1
tp2038
Rp2039
(I3
S'|'
p2040
NNNI10
I1
I0
tp2041
bS'republican'
p2042
tp2043
Rp2044
ag27
(g28
(S'S10'
p2045
I0
I1
tp2046
Rp2047
(I3
S'|'
p2048
NNNI10
I1
I0
tp2049
bS'republican'
p2050
tp2051
Rp2052
a(iNode
Node
p2053
(dp2054
g13
(lp2055
(iNode
Node
p2056
(dp2057
g13
(lp2058
g27
(g28
(S'S10'
p2059
I0
I1
tp2060
Rp2061
(I3
S'|'
p2062
NNNI10
I1
I0
tp2063
bS'republican'
p2064
tp2065
Rp2066
a(iNode
Node
p2067
(dp2068
g13
(lp2069
g27
(g28
(S'S8'
p2070
I0
I1
tp2071
Rp2072
(I3
S'|'
p2073
NNNI8
I1
I0
tp2074
bS'democrat'
p2075
tp2076
Rp2077
ag27
(g28
(S'S10'
p2078
I0
I1
tp2079
Rp2080
(I3
S'|'
p2081
NNNI10
I1
I0
tp2082
bS'republican'
p2083
tp2084
Rp2085
asg45
I1
sg46
(lp2086
(iMethods
Instance
p2087
(dp2088
g50
(iMethods
FeatureVector
p2089
(dp2090
g53
(dp2091
I0
F0.0
sI1
F0.0
sI2
F2.0
sI3
F2.0
sI4
F2.0
sI5
F2.0
sI6
F0.0
sI7
F0.0
sI8
F2.0
sI9
F0.0
sI10
F0.0
sI11
F0.0
sI12
F2.0
sI13
F2.0
sI14
F2.0
sI15
F1.0
ssbsg55
g0
(g56
g2
Ntp2092
Rp2093
(dp2094
g60
S'democrat'
p2095
sbsba(iMethods
Instance
p2096
(dp2097
g50
(iMethods
FeatureVector
p2098
(dp2099
g53
(dp2100
I0
F0.0
sI1
F2.0
sI2
F2.0
sI3
F2.0
sI4
F2.0
sI5
F2.0
sI6
F2.0
sI7
F1.0
sI8
F0.0
sI9
F0.0
sI10
F0.0
sI11
F0.0
sI12
F1.0
sI13
F1.0
sI14
F2.0
sI15
F1.0
ssbsg55
g0
(g56
g2
Ntp2101
Rp2102
(dp2103
g60
S'republican'
p2104
sbsbasbag27
(g28
(S'S8'
p2105
I0
I1
tp2106
Rp2107
(I3
S'|'
p2108
NNNI8
I1
I0
tp2109
bS'democrat'
p2110
tp2111
Rp2112
asg45
I15
sg46
(lp2113
(iMethods
Instance
p2114
(dp2115
g50
(iMethods
FeatureVector
p2116
(dp2117
g53
(dp2118
I0
F0.0
sI1
F2.0
sI2
F0.0
sI3
F2.0
sI4
F2.0
sI5
F2.0
sI6
F0.0
sI7
F0.0
sI8
F0.0
sI9
F0.0
sI10
F0.0
sI11
F0.0
sI12
F1.0
sI13
F2.0
sI14
F2.0
sI15
F2.0
ssbsg55
g0
(g56
g2
Ntp2119
Rp2120
(dp2121
g60
S'democrat'
p2122
sbsbag2087
a(iMethods
Instance
p2123
(dp2124
g50
(iMethods
FeatureVector
p2125
(dp2126
g53
(dp2127
I0
F0.0
sI1
F0.0
sI2
F0.0
sI3
F2.0
sI4
F2.0
sI5
F2.0
sI6
F0.0
sI7
F0.0
sI8
F0.0
sI9
F0.0
sI10
F0.0
sI11
F2.0
sI12
F2.0
sI13
F2.0
sI14
F2.0
sI15
F0.0
ssbsg55
g0
(g56
g2
Ntp2128
Rp2129
(dp2130
g60
S'republican'
p2131
sbsbag2096
asbag27
(g28
(S'S10'
p2132
I0
I1
tp2133
Rp2134
(I3
S'|'
p2135
NNNI10
I1
I0
tp2136
bS'republican'
p2137
tp2138
Rp2139
asg45
I9
sg46
(lp2140
g2114
a(iMethods
Instance
p2141
(dp2142
g50
(iMethods
FeatureVector
p2143
(dp2144
g53
(dp2145
I0
F2.0
sI1
F0.0
sI2
F2.0
sI3
F2.0
sI4
F2.0
sI5
F2.0
sI6
F2.0
sI7
F2.0
sI8
F0.0
sI9
F2.0
sI10
F0.0
sI11
F2.0
sI12
F0.0
sI13
F2.0
sI14
F2.0
sI15
F2.0
ssbsg55
g0
(g56
g2
Ntp2146
Rp2147
(dp2148
g60
S'republican'
p2149
sbsbag2087
a(iMethods
Instance
p2150
(dp2151
g50
(iMethods
FeatureVector
p2152
(dp2153
g53
(dp2154
I0
F0.0
sI1
F0.0
sI2
F2.0
sI3
F2.0
sI4
F0.0
sI5
F0.0
sI6
F2.0
sI7
F2.0
sI8
F2.0
sI9
F2.0
sI10
F0.0
sI11
F0.0
sI12
F0.0
sI13
F2.0
sI14
F2.0
sI15
F2.0
ssbsg55
g0
(g56
g2
Ntp2155
Rp2156
(dp2157
g60
S'republican'
p2158
sbsba(iMethods
Instance
p2159
(dp2160
g50
(iMethods
FeatureVector
p2161
(dp2162
g53
(dp2163
I0
F0.0
sI1
F0.0
sI2
F0.0
sI3
F2.0
sI4
F2.0
sI5
F2.0
sI6
F2.0
sI7
F0.0
sI8
F0.0
sI9
F2.0
sI10
F0.0
sI11
F0.0
sI12
F0.0
sI13
F2.0
sI14
F2.0
sI15
F2.0
ssbsg55
g0
(g56
g2
Ntp2164
Rp2165
(dp2166
g60
S'republican'
p2167
sbsba(iMethods
Instance
p2168
(dp2169
g50
(iMethods
FeatureVector
p2170
(dp2171
g53
(dp2172
I0
F2.0
sI1
F0.0
sI2
F0.0
sI3
F2.0
sI4
F2.0
sI5
F0.0
sI6
F2.0
sI7
F0.0
sI8
F0.0
sI9
F2.0
sI10
F0.0
sI11
F0.0
sI12
F0.0
sI13
F2.0
sI14
F2.0
sI15
F2.0
ssbsg55
g0
(g56
g2
Ntp2173
Rp2174
(dp2175
g60
S'republican'
p2176
sbsbag2123
a(iMethods
Instance
p2177
(dp2178
g50
(iMethods
FeatureVector
p2179
(dp2180
g53
(dp2181
I0
F0.0
sI1
F0.0
sI2
F2.0
sI3
F2.0
sI4
F2.0
sI5
F2.0
sI6
F0.0
sI7
F0.0
sI8
F0.0
sI9
F2.0
sI10
F0.0
sI11
F2.0
sI12
F2.0
sI13
F2.0
sI14
F2.0
sI15
F2.0
ssbsg55
g0
(g56
g2
Ntp2182
Rp2183
(dp2184
g60
S'republican'
p2185
sbsba(iMethods
Instance
p2186
(dp2187
g50
(iMethods
FeatureVector
p2188
(dp2189
g53
(dp2190
I0
F0.0
sI1
F0.0
sI2
F0.0
sI3
F2.0
sI4
F2.0
sI5
F2.0
sI6
F0.0
sI7
F0.0
sI8
F0.0
sI9
F2.0
sI10
F0.0
sI11
F2.0
sI12
F2.0
sI13
F2.0
sI14
F2.0
sI15
F0.0
ssbsg55
g0
(g56
g2
Ntp2191
Rp2192
(dp2193
g60
S'republican'
p2194
sbsbag2096
a(iMethods
Instance
p2195
(dp2196
g50
(iMethods
FeatureVector
p2197
(dp2198
g53
(dp2199
I0
F0.0
sI1
F0.0
sI2
F0.0
sI3
F2.0
sI4
F2.0
sI5
F2.0
sI6
F2.0
sI7
F0.0
sI8
F0.0
sI9
F2.0
sI10
F0.0
sI11
F2.0
sI12
F0.0
sI13
F2.0
sI14
F2.0
sI15
F2.0
ssbsg55
g0
(g56
g2
Ntp2200
Rp2201
(dp2202
g60
S'republican'
p2203
sbsbasbasg45
I14
sg46
(lp2204
(iMethods
Instance
p2205
(dp2206
g50
(iMethods
FeatureVector
p2207
(dp2208
g53
(dp2209
I0
F0.0
sI1
F2.0
sI2
F0.0
sI3
F2.0
sI4
F2.0
sI5
F2.0
sI6
F0.0
sI7
F0.0
sI8
F0.0
sI9
F0.0
sI10
F0.0
sI11
F2.0
sI12
F2.0
sI13
F2.0
sI14
F0.0
sI15
F1.0
ssbsg55
g0
(g56
g2
Ntp2210
Rp2211
(dp2212
g60
S'republican'
p2213
sbsbag2114
a(iMethods
Instance
p2214
(dp2215
g50
(iMethods
FeatureVector
p2216
(dp2217
g53
(dp2218
I0
F0.0
sI1
F2.0
sI2
F0.0
sI3
F2.0
sI4
F2.0
sI5
F2.0
sI6
F0.0
sI7
F0.0
sI8
F0.0
sI9
F0.0
sI10
F0.0
sI11
F0.0
sI12
F2.0
sI13
F2.0
sI14
F1.0
sI15
F2.0
ssbsg55
g0
(g56
g2
Ntp2219
Rp2220
(dp2221
g60
S'republican'
p2222
sbsba(iMethods
Instance
p2223
(dp2224
g50
(iMethods
FeatureVector
p2225
(dp2226
g53
(dp2227
I0
F0.0
sI1
F2.0
sI2
F0.0
sI3
F2.0
sI4
F2.0
sI5
F2.0
sI6
F0.0
sI7
F0.0
sI8
F0.0
sI9
F0.0
sI10
F0.0
sI11
F2.0
sI12
F2.0
sI13
F2.0
sI14
F0.0
sI15
F2.0
ssbsg55
g0
(g56
g2
Ntp2228
Rp2229
(dp2230
g60
S'republican'
p2231
sbsba(iMethods
Instance
p2232
(dp2233
g50
(iMethods
FeatureVector
p2234
(dp2235
g53
(dp2236
I0
F0.0
sI1
F2.0
sI2
F0.0
sI3
F2.0
sI4
F2.0
sI5
F2.0
sI6
F0.0
sI7
F0.0
sI8
F0.0
sI9
F0.0
sI10
F0.0
sI11
F2.0
sI12
F1.0
sI13
F1.0
sI14
F0.0
sI15
F1.0
ssbsg55
g0
(g56
g2
Ntp2237
Rp2238
(dp2239
g60
S'republican'
p2240
sbsba(iMethods
Instance
p2241
(dp2242
g50
(iMethods
FeatureVector
p2243
(dp2244
g53
(dp2245
I0
F0.0
sI1
F2.0
sI2
F0.0
sI3
F2.0
sI4
F2.0
sI5
F2.0
sI6
F0.0
sI7
F0.0
sI8
F0.0
sI9
F2.0
sI10
F0.0
sI11
F2.0
sI12
F2.0
sI13
F1.0
sI14
F0.0
sI15
F1.0
ssbsg55
g0
(g56
g2
Ntp2246
Rp2247
(dp2248
g60
S'republican'
p2249
sbsba(iMethods
Instance
p2250
(dp2251
g50
(iMethods
FeatureVector
p2252
(dp2253
g53
(dp2254
I0
F0.0
sI1
F2.0
sI2
F0.0
sI3
F2.0
sI4
F2.0
sI5
F2.0
sI6
F0.0
sI7
F0.0
sI8
F0.0
sI9
F0.0
sI10
F0.0
sI11
F1.0
sI12
F2.0
sI13
F2.0
sI14
F0.0
sI15
F0.0
ssbsg55
g0
(g56
g2
Ntp2255
Rp2256
(dp2257
g60
S'republican'
p2258
sbsba(iMethods
Instance
p2259
(dp2260
g50
(iMethods
FeatureVector
p2261
(dp2262
g53
(dp2263
I0
F2.0
sI1
F0.0
sI2
F0.0
sI3
F2.0
sI4
F2.0
sI5
F0.0
sI6
F2.0
sI7
F2.0
sI8
F2.0
sI9
F0.0
sI10
F0.0
sI11
F2.0
sI12
F2.0
sI13
F2.0
sI14
F0.0
sI15
F2.0
ssbsg55
g0
(g56
g2
Ntp2264
Rp2265
(dp2266
g60
S'republican'
p2267
sbsba(iMethods
Instance
p2268
(dp2269
g50
(iMethods
FeatureVector
p2270
(dp2271
g53
(dp2272
I0
F0.0
sI1
F2.0
sI2
F0.0
sI3
F2.0
sI4
F2.0
sI5
F2.0
sI6
F0.0
sI7
F0.0
sI8
F0.0
sI9
F0.0
sI10
F0.0
sI11
F2.0
sI12
F2.0
sI13
F2.0
sI14
F0.0
sI15
F0.0
ssbsg55
g0
(g56
g2
Ntp2273
Rp2274
(dp2275
g60
S'republican'
p2276
sbsba(iMethods
Instance
p2277
(dp2278
g50
(iMethods
FeatureVector
p2279
(dp2280
g53
(dp2281
I0
F0.0
sI1
F2.0
sI2
F0.0
sI3
F2.0
sI4
F2.0
sI5
F2.0
sI6
F0.0
sI7
F0.0
sI8
F0.0
sI9
F0.0
sI10
F0.0
sI11
F2.0
sI12
F2.0
sI13
F2.0
sI14
F0.0
sI15
F2.0
ssbsg55
g0
(g56
g2
Ntp2282
Rp2283
(dp2284
g60
S'republican'
p2285
sbsba(iMethods
Instance
p2286
(dp2287
g50
(iMethods
FeatureVector
p2288
(dp2289
g53
(dp2290
I0
F0.0
sI1
F2.0
sI2
F0.0
sI3
F2.0
sI4
F2.0
sI5
F2.0
sI6
F0.0
sI7
F0.0
sI8
F0.0
sI9
F0.0
sI10
F0.0
sI11
F2.0
sI12
F2.0
sI13
F2.0
sI14
F0.0
sI15
F0.0
ssbsg55
g0
(g56
g2
Ntp2291
Rp2292
(dp2293
g60
S'republican'
p2294
sbsba(iMethods
Instance
p2295
(dp2296
g50
(iMethods
FeatureVector
p2297
(dp2298
g53
(dp2299
I0
F2.0
sI1
F1.0
sI2
F0.0
sI3
F2.0
sI4
F2.0
sI5
F2.0
sI6
F0.0
sI7
F0.0
sI8
F0.0
sI9
F2.0
sI10
F0.0
sI11
F2.0
sI12
F1.0
sI13
F2.0
sI14
F0.0
sI15
F2.0
ssbsg55
g0
(g56
g2
Ntp2300
Rp2301
(dp2302
g60
S'republican'
p2303
sbsba(iMethods
Instance
p2304
(dp2305
g50
(iMethods
FeatureVector
p2306
(dp2307
g53
(dp2308
I0
F2.0
sI1
F2.0
sI2
F0.0
sI3
F2.0
sI4
F2.0
sI5
F2.0
sI6
F0.0
sI7
F0.0
sI8
F0.0
sI9
F0.0
sI10
F0.0
sI11
F0.0
sI12
F2.0
sI13
F2.0
sI14
F0.0
sI15
F2.0
ssbsg55
g0
(g56
g2
Ntp2309
Rp2310
(dp2311
g60
S'republican'
p2312
sbsba(iMethods
Instance
p2313
(dp2314
g50
(iMethods
FeatureVector
p2315
(dp2316
g53
(dp2317
I0
F0.0
sI1
F2.0
sI2
F0.0
sI3
F2.0
sI4
F2.0
sI5
F2.0
sI6
F0.0
sI7
F0.0
sI8
F0.0
sI9
F2.0
sI10
F0.0
sI11
F2.0
sI12
F2.0
sI13
F2.0
sI14
F0.0
sI15
F0.0
ssbsg55
g0
(g56
g2
Ntp2318
Rp2319
(dp2320
g60
S'republican'
p2321
sbsba(iMethods
Instance
p2322
(dp2323
g50
(iMethods
FeatureVector
p2324
(dp2325
g53
(dp2326
I0
F0.0
sI1
F1.0
sI2
F0.0
sI3
F2.0
sI4
F2.0
sI5
F2.0
sI6
F0.0
sI7
F0.0
sI8
F0.0
sI9
F0.0
sI10
F0.0
sI11
F2.0
sI12
F2.0
sI13
F2.0
sI14
F0.0
sI15
F0.0
ssbsg55
g0
(g56
g2
Ntp2327
Rp2328
(dp2329
g60
S'republican'
p2330
sbsba(iMethods
Instance
p2331
(dp2332
g50
(iMethods
FeatureVector
p2333
(dp2334
g53
(dp2335
I0
F0.0
sI1
F2.0
sI2
F0.0
sI3
F2.0
sI4
F2.0
sI5
F2.0
sI6
F0.0
sI7
F1.0
sI8
F0.0
sI9
F0.0
sI10
F0.0
sI11
F2.0
sI12
F2.0
sI13
F2.0
sI14
F0.0
sI15
F2.0
ssbsg55
g0
(g56
g2
Ntp2336
Rp2337
(dp2338
g60
S'republican'
p2339
sbsba(iMethods
Instance
p2340
(dp2341
g50
(iMethods
FeatureVector
p2342
(dp2343
g53
(dp2344
I0
F2.0
sI1
F2.0
sI2
F0.0
sI3
F2.0
sI4
F2.0
sI5
F2.0
sI6
F0.0
sI7
F0.0
sI8
F0.0
sI9
F2.0
sI10
F0.0
sI11
F2.0
sI12
F2.0
sI13
F2.0
sI14
F0.0
sI15
F0.0
ssbsg55
g0
(g56
g2
Ntp2345
Rp2346
(dp2347
g60
S'republican'
p2348
sbsba(iMethods
Instance
p2349
(dp2350
g50
(iMethods
FeatureVector
p2351
(dp2352
g53
(dp2353
I0
F0.0
sI1
F2.0
sI2
F0.0
sI3
F2.0
sI4
F2.0
sI5
F2.0
sI6
F0.0
sI7
F0.0
sI8
F0.0
sI9
F2.0
sI10
F0.0
sI11
F2.0
sI12
F2.0
sI13
F2.0
sI14
F0.0
sI15
F2.0
ssbsg55
g0
(g56
g2
Ntp2354
Rp2355
(dp2356
g60
S'republican'
p2357
sbsba(iMethods
Instance
p2358
(dp2359
g50
(iMethods
FeatureVector
p2360
(dp2361
g53
(dp2362
I0
F0.0
sI1
F2.0
sI2
F0.0
sI3
F2.0
sI4
F2.0
sI5
F2.0
sI6
F0.0
sI7
F0.0
sI8
F0.0
sI9
F2.0
sI10
F0.0
sI11
F2.0
sI12
F2.0
sI13
F2.0
sI14
F0.0
sI15
F2.0
ssbsg55
g0
(g56
g2
Ntp2363
Rp2364
(dp2365
g60
S'republican'
p2366
sbsba(iMethods
Instance
p2367
(dp2368
g50
(iMethods
FeatureVector
p2369
(dp2370
g53
(dp2371
I0
F0.0
sI1
F2.0
sI2
F0.0
sI3
F2.0
sI4
F2.0
sI5
F2.0
sI6
F0.0
sI7
F0.0
sI8
F0.0
sI9
F2.0
sI10
F0.0
sI11
F2.0
sI12
F2.0
sI13
F2.0
sI14
F0.0
sI15
F1.0
ssbsg55
g0
(g56
g2
Ntp2372
Rp2373
(dp2374
g60
S'republican'
p2375
sbsba(iMethods
Instance
p2376
(dp2377
g50
(iMethods
FeatureVector
p2378
(dp2379
g53
(dp2380
I0
F0.0
sI1
F2.0
sI2
F0.0
sI3
F2.0
sI4
F2.0
sI5
F2.0
sI6
F0.0
sI7
F0.0
sI8
F0.0
sI9
F0.0
sI10
F0.0
sI11
F2.0
sI12
F2.0
sI13
F2.0
sI14
F0.0
sI15
F0.0
ssbsg55
g0
(g56
g2
Ntp2381
Rp2382
(dp2383
g60
S'republican'
p2384
sbsba(iMethods
Instance
p2385
(dp2386
g50
(iMethods
FeatureVector
p2387
(dp2388
g53
(dp2389
I0
F2.0
sI1
F2.0
sI2
F0.0
sI3
F2.0
sI4
F2.0
sI5
F2.0
sI6
F2.0
sI7
F0.0
sI8
F0.0
sI9
F0.0
sI10
F0.0
sI11
F2.0
sI12
F2.0
sI13
F2.0
sI14
F0.0
sI15
F2.0
ssbsg55
g0
(g56
g2
Ntp2390
Rp2391
(dp2392
g60
S'republican'
p2393
sbsba(iMethods
Instance
p2394
(dp2395
g50
(iMethods
FeatureVector
p2396
(dp2397
g53
(dp2398
I0
F0.0
sI1
F2.0
sI2
F0.0
sI3
F2.0
sI4
F2.0
sI5
F2.0
sI6
F0.0
sI7
F0.0
sI8
F0.0
sI9
F2.0
sI10
F0.0
sI11
F2.0
sI12
F2.0
sI13
F2.0
sI14
F0.0
sI15
F0.0
ssbsg55
g0
(g56
g2
Ntp2399
Rp2400
(dp2401
g60
S'republican'
p2402
sbsba(iMethods
Instance
p2403
(dp2404
g50
(iMethods
FeatureVector
p2405
(dp2406
g53
(dp2407
I0
F2.0
sI1
F0.0
sI2
F2.0
sI3
F2.0
sI4
F2.0
sI5
F0.0
sI6
F2.0
sI7
F0.0
sI8
F2.0
sI9
F2.0
sI10
F0.0
sI11
F0.0
sI12
F2.0
sI13
F2.0
sI14
F0.0
sI15
F2.0
ssbsg55
g0
(g56
g2
Ntp2408
Rp2409
(dp2410
g60
S'republican'
p2411
sbsba(iMethods
Instance
p2412
(dp2413
g50
(iMethods
FeatureVector
p2414
(dp2415
g53
(dp2416
I0
F0.0
sI1
F0.0
sI2
F0.0
sI3
F2.0
sI4
F2.0
sI5
F0.0
sI6
F0.0
sI7
F0.0
sI8
F0.0
sI9
F2.0
sI10
F0.0
sI11
F2.0
sI12
F2.0
sI13
F2.0
sI14
F0.0
sI15
F0.0
ssbsg55
g0
(g56
g2
Ntp2417
Rp2418
(dp2419
g60
S'republican'
p2420
sbsba(iMethods
Instance
p2421
(dp2422
g50
(iMethods
FeatureVector
p2423
(dp2424
g53
(dp2425
I0
F0.0
sI1
F0.0
sI2
F0.0
sI3
F2.0
sI4
F2.0
sI5
F2.0
sI6
F0.0
sI7
F0.0
sI8
F0.0
sI9
F2.0
sI10
F0.0
sI11
F2.0
sI12
F2.0
sI13
F2.0
sI14
F0.0
sI15
F2.0
ssbsg55
g0
(g56
g2
Ntp2426
Rp2427
(dp2428
g60
S'republican'
p2429
sbsba(iMethods
Instance
p2430
(dp2431
g50
(iMethods
FeatureVector
p2432
(dp2433
g53
(dp2434
I0
F0.0
sI1
F0.0
sI2
F0.0
sI3
F2.0
sI4
F2.0
sI5
F2.0
sI6
F0.0
sI7
F0.0
sI8
F0.0
sI9
F0.0
sI10
F0.0
sI11
F2.0
sI12
F2.0
sI13
F2.0
sI14
F0.0
sI15
F0.0
ssbsg55
g0
(g56
g2
Ntp2435
Rp2436
(dp2437
g60
S'republican'
p2438
sbsba(iMethods
Instance
p2439
(dp2440
g50
(iMethods
FeatureVector
p2441
(dp2442
g53
(dp2443
I0
F0.0
sI1
F1.0
sI2
F0.0
sI3
F2.0
sI4
F2.0
sI5
F2.0
sI6
F0.0
sI7
F0.0
sI8
F0.0
sI9
F2.0
sI10
F0.0
sI11
F2.0
sI12
F2.0
sI13
F2.0
sI14
F0.0
sI15
F0.0
ssbsg55
g0
(g56
g2
Ntp2444
Rp2445
(dp2446
g60
S'republican'
p2447
sbsba(iMethods
Instance
p2448
(dp2449
g50
(iMethods
FeatureVector
p2450
(dp2451
g53
(dp2452
I0
F0.0
sI1
F0.0
sI2
F0.0
sI3
F2.0
sI4
F2.0
sI5
F2.0
sI6
F0.0
sI7
F0.0
sI8
F0.0
sI9
F2.0
sI10
F0.0
sI11
F2.0
sI12
F2.0
sI13
F2.0
sI14
F0.0
sI15
F0.0
ssbsg55
g0
(g56
g2
Ntp2453
Rp2454
(dp2455
g60
S'republican'
p2456
sbsba(iMethods
Instance
p2457
(dp2458
g50
(iMethods
FeatureVector
p2459
(dp2460
g53
(dp2461
I0
F0.0
sI1
F0.0
sI2
F0.0
sI3
F2.0
sI4
F2.0
sI5
F2.0
sI6
F0.0
sI7
F0.0
sI8
F0.0
sI9
F0.0
sI10
F0.0
sI11
F2.0
sI12
F2.0
sI13
F2.0
sI14
F0.0
sI15
F0.0
ssbsg55
g0
(g56
g2
Ntp2462
Rp2463
(dp2464
g60
S'republican'
p2465
sbsba(iMethods
Instance
p2466
(dp2467
g50
(iMethods
FeatureVector
p2468
(dp2469
g53
(dp2470
I0
F0.0
sI1
F0.0
sI2
F0.0
sI3
F2.0
sI4
F2.0
sI5
F2.0
sI6
F0.0
sI7
F0.0
sI8
F0.0
sI9
F2.0
sI10
F0.0
sI11
F1.0
sI12
F2.0
sI13
F2.0
sI14
F0.0
sI15
F1.0
ssbsg55
g0
(g56
g2
Ntp2471
Rp2472
(dp2473
g60
S'republican'
p2474
sbsba(iMethods
Instance
p2475
(dp2476
g50
(iMethods
FeatureVector
p2477
(dp2478
g53
(dp2479
I0
F0.0
sI1
F2.0
sI2
F0.0
sI3
F2.0
sI4
F2.0
sI5
F2.0
sI6
F0.0
sI7
F0.0
sI8
F0.0
sI9
F0.0
sI10
F0.0
sI11
F2.0
sI12
F2.0
sI13
F2.0
sI14
F0.0
sI15
F2.0
ssbsg55
g0
(g56
g2
Ntp2480
Rp2481
(dp2482
g60
S'republican'
p2483
sbsba(iMethods
Instance
p2484
(dp2485
g50
(iMethods
FeatureVector
p2486
(dp2487
g53
(dp2488
I0
F0.0
sI1
F1.0
sI2
F0.0
sI3
F2.0
sI4
F2.0
sI5
F2.0
sI6
F0.0
sI7
F0.0
sI8
F0.0
sI9
F2.0
sI10
F0.0
sI11
F2.0
sI12
F2.0
sI13
F2.0
sI14
F0.0
sI15
F2.0
ssbsg55
g0
(g56
g2
Ntp2489
Rp2490
(dp2491
g60
S'republican'
p2492
sbsba(iMethods
Instance
p2493
(dp2494
g50
(iMethods
FeatureVector
p2495
(dp2496
g53
(dp2497
I0
F0.0
sI1
F1.0
sI2
F0.0
sI3
F2.0
sI4
F2.0
sI5
F2.0
sI6
F0.0
sI7
F0.0
sI8
F0.0
sI9
F2.0
sI10
F0.0
sI11
F2.0
sI12
F2.0
sI13
F2.0
sI14
F0.0
sI15
F0.0
ssbsg55
g0
(g56
g2
Ntp2498
Rp2499
(dp2500
g60
S'republican'
p2501
sbsba(iMethods
Instance
p2502
(dp2503
g50
(iMethods
FeatureVector
p2504
(dp2505
g53
(dp2506
I0
F2.0
sI1
F2.0
sI2
F2.0
sI3
F2.0
sI4
F2.0
sI5
F0.0
sI6
F2.0
sI7
F0.0
sI8
F0.0
sI9
F0.0
sI10
F0.0
sI11
F2.0
sI12
F2.0
sI13
F2.0
sI14
F0.0
sI15
F2.0
ssbsg55
g0
(g56
g2
Ntp2507
Rp2508
(dp2509
g60
S'republican'
p2510
sbsba(iMethods
Instance
p2511
(dp2512
g50
(iMethods
FeatureVector
p2513
(dp2514
g53
(dp2515
I0
F0.0
sI1
F0.0
sI2
F0.0
sI3
F2.0
sI4
F2.0
sI5
F2.0
sI6
F0.0
sI7
F0.0
sI8
F0.0
sI9
F0.0
sI10
F0.0
sI11
F2.0
sI12
F2.0
sI13
F2.0
sI14
F0.0
sI15
F0.0
ssbsg55
g0
(g56
g2
Ntp2516
Rp2517
(dp2518
g60
S'republican'
p2519
sbsba(iMethods
Instance
p2520
(dp2521
g50
(iMethods
FeatureVector
p2522
(dp2523
g53
(dp2524
I0
F0.0
sI1
F1.0
sI2
F1.0
sI3
F2.0
sI4
F2.0
sI5
F2.0
sI6
F0.0
sI7
F0.0
sI8
F0.0
sI9
F2.0
sI10
F0.0
sI11
F2.0
sI12
F2.0
sI13
F2.0
sI14
F1.0
sI15
F2.0
ssbsg55
g0
(g56
g2
Ntp2525
Rp2526
(dp2527
g60
S'republican'
p2528
sbsba(iMethods
Instance
p2529
(dp2530
g50
(iMethods
FeatureVector
p2531
(dp2532
g53
(dp2533
I0
F0.0
sI1
F1.0
sI2
F0.0
sI3
F2.0
sI4
F2.0
sI5
F2.0
sI6
F0.0
sI7
F0.0
sI8
F0.0
sI9
F2.0
sI10
F0.0
sI11
F2.0
sI12
F2.0
sI13
F2.0
sI14
F0.0
sI15
F2.0
ssbsg55
g0
(g56
g2
Ntp2534
Rp2535
(dp2536
g60
S'republican'
p2537
sbsba(iMethods
Instance
p2538
(dp2539
g50
(iMethods
FeatureVector
p2540
(dp2541
g53
(dp2542
I0
F0.0
sI1
F0.0
sI2
F0.0
sI3
F2.0
sI4
F2.0
sI5
F2.0
sI6
F0.0
sI7
F0.0
sI8
F0.0
sI9
F2.0
sI10
F0.0
sI11
F2.0
sI12
F0.0
sI13
F2.0
sI14
F0.0
sI15
F2.0
ssbsg55
g0
(g56
g2
Ntp2543
Rp2544
(dp2545
g60
S'republican'
p2546
sbsba(iMethods
Instance
p2547
(dp2548
g50
(iMethods
FeatureVector
p2549
(dp2550
g53
(dp2551
I0
F2.0
sI1
F1.0
sI2
F0.0
sI3
F2.0
sI4
F2.0
sI5
F2.0
sI6
F0.0
sI7
F2.0
sI8
F0.0
sI9
F0.0
sI10
F0.0
sI11
F2.0
sI12
F2.0
sI13
F2.0
sI14
F0.0
sI15
F2.0
ssbsg55
g0
(g56
g2
Ntp2552
Rp2553
(dp2554
g60
S'republican'
p2555
sbsba(iMethods
Instance
p2556
(dp2557
g50
(iMethods
FeatureVector
p2558
(dp2559
g53
(dp2560
I0
F0.0
sI1
F1.0
sI2
F0.0
sI3
F2.0
sI4
F2.0
sI5
F2.0
sI6
F0.0
sI7
F0.0
sI8
F0.0
sI9
F2.0
sI10
F0.0
sI11
F2.0
sI12
F2.0
sI13
F2.0
sI14
F0.0
sI15
F2.0
ssbsg55
g0
(g56
g2
Ntp2561
Rp2562
(dp2563
g60
S'republican'
p2564
sbsba(iMethods
Instance
p2565
(dp2566
g50
(iMethods
FeatureVector
p2567
(dp2568
g53
(dp2569
I0
F0.0
sI1
F1.0
sI2
F0.0
sI3
F2.0
sI4
F2.0
sI5
F2.0
sI6
F0.0
sI7
F0.0
sI8
F0.0
sI9
F0.0
sI10
F0.0
sI11
F2.0
sI12
F2.0
sI13
F2.0
sI14
F0.0
sI15
F0.0
ssbsg55
g0
(g56
g2
Ntp2570
Rp2571
(dp2572
g60
S'republican'
p2573
sbsba(iMethods
Instance
p2574
(dp2575
g50
(iMethods
FeatureVector
p2576
(dp2577
g53
(dp2578
I0
F0.0
sI1
F0.0
sI2
F0.0
sI3
F2.0
sI4
F2.0
sI5
F2.0
sI6
F0.0
sI7
F0.0
sI8
F0.0
sI9
F2.0
sI10
F0.0
sI11
F2.0
sI12
F2.0
sI13
F2.0
sI14
F0.0
sI15
F1.0
ssbsg55
g0
(g56
g2
Ntp2579
Rp2580
(dp2581
g60
S'republican'
p2582
sbsba(iMethods
Instance
p2583
(dp2584
g50
(iMethods
FeatureVector
p2585
(dp2586
g53
(dp2587
I0
F0.0
sI1
F0.0
sI2
F0.0
sI3
F2.0
sI4
F2.0
sI5
F2.0
sI6
F0.0
sI7
F0.0
sI8
F0.0
sI9
F2.0
sI10
F0.0
sI11
F2.0
sI12
F2.0
sI13
F2.0
sI14
F0.0
sI15
F2.0
ssbsg55
g0
(g56
g2
Ntp2588
Rp2589
(dp2590
g60
S'republican'
p2591
sbsba(iMethods
Instance
p2592
(dp2593
g50
(iMethods
FeatureVector
p2594
(dp2595
g53
(dp2596
I0
F0.0
sI1
F0.0
sI2
F0.0
sI3
F2.0
sI4
F2.0
sI5
F2.0
sI6
F0.0
sI7
F0.0
sI8
F0.0
sI9
F0.0
sI10
F0.0
sI11
F2.0
sI12
F2.0
sI13
F2.0
sI14
F0.0
sI15
F1.0
ssbsg55
g0
(g56
g2
Ntp2597
Rp2598
(dp2599
g60
S'republican'
p2600
sbsba(iMethods
Instance
p2601
(dp2602
g50
(iMethods
FeatureVector
p2603
(dp2604
g53
(dp2605
I0
F0.0
sI1
F0.0
sI2
F0.0
sI3
F2.0
sI4
F2.0
sI5
F2.0
sI6
F0.0
sI7
F0.0
sI8
F0.0
sI9
F2.0
sI10
F0.0
sI11
F2.0
sI12
F2.0
sI13
F2.0
sI14
F0.0
sI15
F0.0
ssbsg55
g0
(g56
g2
Ntp2606
Rp2607
(dp2608
g60
S'republican'
p2609
sbsba(iMethods
Instance
p2610
(dp2611
g50
(iMethods
FeatureVector
p2612
(dp2613
g53
(dp2614
I0
F0.0
sI1
F0.0
sI2
F0.0
sI3
F2.0
sI4
F0.0
sI5
F0.0
sI6
F2.0
sI7
F2.0
sI8
F2.0
sI9
F2.0
sI10
F0.0
sI11
F0.0
sI12
F2.0
sI13
F2.0
sI14
F0.0
sI15
F2.0
ssbsg55
g0
(g56
g2
Ntp2615
Rp2616
(dp2617
g60
S'republican'
p2618
sbsba(iMethods
Instance
p2619
(dp2620
g50
(iMethods
FeatureVector
p2621
(dp2622
g53
(dp2623
I0
F0.0
sI1
F0.0
sI2
F0.0
sI3
F2.0
sI4
F2.0
sI5
F2.0
sI6
F2.0
sI7
F2.0
sI8
F2.0
sI9
F2.0
sI10
F0.0
sI11
F2.0
sI12
F2.0
sI13
F2.0
sI14
F1.0
sI15
F2.0
ssbsg55
g0
(g56
g2
Ntp2624
Rp2625
(dp2626
g60
S'republican'
p2627
sbsba(iMethods
Instance
p2628
(dp2629
g50
(iMethods
FeatureVector
p2630
(dp2631
g53
(dp2632
I0
F0.0
sI1
F0.0
sI2
F0.0
sI3
F2.0
sI4
F2.0
sI5
F2.0
sI6
F2.0
sI7
F2.0
sI8
F2.0
sI9
F2.0
sI10
F0.0
sI11
F2.0
sI12
F2.0
sI13
F2.0
sI14
F0.0
sI15
F2.0
ssbsg55
g0
(g56
g2
Ntp2633
Rp2634
(dp2635
g60
S'republican'
p2636
sbsba(iMethods
Instance
p2637
(dp2638
g50
(iMethods
FeatureVector
p2639
(dp2640
g53
(dp2641
I0
F0.0
sI1
F2.0
sI2
F0.0
sI3
F2.0
sI4
F2.0
sI5
F2.0
sI6
F0.0
sI7
F0.0
sI8
F0.0
sI9
F0.0
sI10
F0.0
sI11
F2.0
sI12
F2.0
sI13
F2.0
sI14
F0.0
sI15
F2.0
ssbsg55
g0
(g56
g2
Ntp2642
Rp2643
(dp2644
g60
S'republican'
p2645
sbsba(iMethods
Instance
p2646
(dp2647
g50
(iMethods
FeatureVector
p2648
(dp2649
g53
(dp2650
I0
F2.0
sI1
F2.0
sI2
F0.0
sI3
F2.0
sI4
F2.0
sI5
F2.0
sI6
F0.0
sI7
F0.0
sI8
F0.0
sI9
F2.0
sI10
F0.0
sI11
F2.0
sI12
F2.0
sI13
F2.0
sI14
F0.0
sI15
F2.0
ssbsg55
g0
(g56
g2
Ntp2651
Rp2652
(dp2653
g60
S'republican'
p2654
sbsba(iMethods
Instance
p2655
(dp2656
g50
(iMethods
FeatureVector
p2657
(dp2658
g53
(dp2659
I0
F0.0
sI1
F2.0
sI2
F0.0
sI3
F2.0
sI4
F2.0
sI5
F2.0
sI6
F0.0
sI7
F0.0
sI8
F0.0
sI9
F0.0
sI10
F0.0
sI11
F2.0
sI12
F2.0
sI13
F2.0
sI14
F0.0
sI15
F0.0
ssbsg55
g0
(g56
g2
Ntp2660
Rp2661
(dp2662
g60
S'republican'
p2663
sbsba(iMethods
Instance
p2664
(dp2665
g50
(iMethods
FeatureVector
p2666
(dp2667
g53
(dp2668
I0
F2.0
sI1
F2.0
sI2
F0.0
sI3
F2.0
sI4
F2.0
sI5
F2.0
sI6
F2.0
sI7
F0.0
sI8
F0.0
sI9
F0.0
sI10
F0.0
sI11
F2.0
sI12
F2.0
sI13
F2.0
sI14
F0.0
sI15
F0.0
ssbsg55
g0
(g56
g2
Ntp2669
Rp2670
(dp2671
g60
S'republican'
p2672
sbsba(iMethods
Instance
p2673
(dp2674
g50
(iMethods
FeatureVector
p2675
(dp2676
g53
(dp2677
I0
F0.0
sI1
F2.0
sI2
F0.0
sI3
F2.0
sI4
F2.0
sI5
F2.0
sI6
F0.0
sI7
F0.0
sI8
F0.0
sI9
F2.0
sI10
F0.0
sI11
F2.0
sI12
F2.0
sI13
F2.0
sI14
F0.0
sI15
F0.0
ssbsg55
g0
(g56
g2
Ntp2678
Rp2679
(dp2680
g60
S'republican'
p2681
sbsba(iMethods
Instance
p2682
(dp2683
g50
(iMethods
FeatureVector
p2684
(dp2685
g53
(dp2686
I0
F0.0
sI1
F2.0
sI2
F0.0
sI3
F2.0
sI4
F2.0
sI5
F2.0
sI6
F2.0
sI7
F0.0
sI8
F0.0
sI9
F0.0
sI10
F0.0
sI11
F2.0
sI12
F2.0
sI13
F2.0
sI14
F0.0
sI15
F2.0
ssbsg55
g0
(g56
g2
Ntp2687
Rp2688
(dp2689
g60
S'republican'
p2690
sbsbag2141
ag2087
a(iMethods
Instance
p2691
(dp2692
g50
(iMethods
FeatureVector
p2693
(dp2694
g53
(dp2695
I0
F0.0
sI1
F1.0
sI2
F0.0
sI3
F2.0
sI4
F2.0
sI5
F2.0
sI6
F0.0
sI7
F0.0
sI8
F0.0
sI9
F2.0
sI10
F0.0
sI11
F2.0
sI12
F2.0
sI13
F2.0
sI14
F0.0
sI15
F2.0
ssbsg55
g0
(g56
g2
Ntp2696
Rp2697
(dp2698
g60
S'republican'
p2699
sbsbag2150
a(iMethods
Instance
p2700
(dp2701
g50
(iMethods
FeatureVector
p2702
(dp2703
g53
(dp2704
I0
F2.0
sI1
F1.0
sI2
F0.0
sI3
F2.0
sI4
F2.0
sI5
F2.0
sI6
F2.0
sI7
F2.0
sI8
F0.0
sI9
F0.0
sI10
F0.0
sI11
F2.0
sI12
F1.0
sI13
F2.0
sI14
F1.0
sI15
F1.0
ssbsg55
g0
(g56
g2
Ntp2705
Rp2706
(dp2707
g60
S'republican'
p2708
sbsba(iMethods
Instance
p2709
(dp2710
g50
(iMethods
FeatureVector
p2711
(dp2712
g53
(dp2713
I0
F0.0
sI1
F1.0
sI2
F0.0
sI3
F2.0
sI4
F2.0
sI5
F2.0
sI6
F0.0
sI7
F0.0
sI8
F0.0
sI9
F0.0
sI10
F0.0
sI11
F2.0
sI12
F2.0
sI13
F2.0
sI14
F0.0
sI15
F1.0
ssbsg55
g0
(g56
g2
Ntp2714
Rp2715
(dp2716
g60
S'republican'
p2717
sbsba(iMethods
Instance
p2718
(dp2719
g50
(iMethods
FeatureVector
p2720
(dp2721
g53
(dp2722
I0
F0.0
sI1
F2.0
sI2
F0.0
sI3
F2.0
sI4
F2.0
sI5
F2.0
sI6
F0.0
sI7
F1.0
sI8
F0.0
sI9
F2.0
sI10
F0.0
sI11
F2.0
sI12
F2.0
sI13
F2.0
sI14
F0.0
sI15
F1.0
ssbsg55
g0
(g56
g2
Ntp2723
Rp2724
(dp2725
g60
S'republican'
p2726
sbsba(iMethods
Instance
p2727
(dp2728
g50
(iMethods
FeatureVector
p2729
(dp2730
g53
(dp2731
I0
F0.0
sI1
F0.0
sI2
F0.0
sI3
F2.0
sI4
F2.0
sI5
F2.0
sI6
F0.0
sI7
F0.0
sI8
F0.0
sI9
F0.0
sI10
F0.0
sI11
F2.0
sI12
F2.0
sI13
F2.0
sI14
F0.0
sI15
F1.0
ssbsg55
g0
(g56
g2
Ntp2732
Rp2733
(dp2734
g60
S'republican'
p2735
sbsba(iMethods
Instance
p2736
(dp2737
g50
(iMethods
FeatureVector
p2738
(dp2739
g53
(dp2740
I0
F0.0
sI1
F1.0
sI2
F2.0
sI3
F2.0
sI4
F2.0
sI5
F2.0
sI6
F0.0
sI7
F0.0
sI8
F0.0
sI9
F2.0
sI10
F0.0
sI11
F0.0
sI12
F0.0
sI13
F2.0
sI14
F0.0
sI15
F2.0
ssbsg55
g0
(g56
g2
Ntp2741
Rp2742
(dp2743
g60
S'republican'
p2744
sbsba(iMethods
Instance
p2745
(dp2746
g50
(iMethods
FeatureVector
p2747
(dp2748
g53
(dp2749
I0
F0.0
sI1
F0.0
sI2
F2.0
sI3
F2.0
sI4
F2.0
sI5
F2.0
sI6
F2.0
sI7
F0.0
sI8
F0.0
sI9
F0.0
sI10
F0.0
sI11
F2.0
sI12
F2.0
sI13
F2.0
sI14
F0.0
sI15
F2.0
ssbsg55
g0
(g56
g2
Ntp2750
Rp2751
(dp2752
g60
S'republican'
p2753
sbsba(iMethods
Instance
p2754
(dp2755
g50
(iMethods
FeatureVector
p2756
(dp2757
g53
(dp2758
I0
F0.0
sI1
F0.0
sI2
F0.0
sI3
F2.0
sI4
F2.0
sI5
F2.0
sI6
F0.0
sI7
F0.0
sI8
F0.0
sI9
F2.0
sI10
F0.0
sI11
F2.0
sI12
F0.0
sI13
F2.0
sI14
F0.0
sI15
F2.0
ssbsg55
g0
(g56
g2
Ntp2759
Rp2760
(dp2761
g60
S'republican'
p2762
sbsba(iMethods
Instance
p2763
(dp2764
g50
(iMethods
FeatureVector
p2765
(dp2766
g53
(dp2767
I0
F2.0
sI1
F1.0
sI2
F0.0
sI3
F2.0
sI4
F2.0
sI5
F2.0
sI6
F2.0
sI7
F0.0
sI8
F0.0
sI9
F2.0
sI10
F0.0
sI11
F2.0
sI12
F2.0
sI13
F2.0
sI14
F0.0
sI15
F2.0
ssbsg55
g0
(g56
g2
Ntp2768
Rp2769
(dp2770
g60
S'republican'
p2771
sbsba(iMethods
Instance
p2772
(dp2773
g50
(iMethods
FeatureVector
p2774
(dp2775
g53
(dp2776
I0
F0.0
sI1
F2.0
sI2
F0.0
sI3
F2.0
sI4
F2.0
sI5
F2.0
sI6
F0.0
sI7
F0.0
sI8
F0.0
sI9
F2.0
sI10
F0.0
sI11
F2.0
sI12
F2.0
sI13
F2.0
sI14
F0.0
sI15
F2.0
ssbsg55
g0
(g56
g2
Ntp2777
Rp2778
(dp2779
g60
S'republican'
p2780
sbsba(iMethods
Instance
p2781
(dp2782
g50
(iMethods
FeatureVector
p2783
(dp2784
g53
(dp2785
I0
F2.0
sI1
F2.0
sI2
F0.0
sI3
F2.0
sI4
F2.0
sI5
F2.0
sI6
F0.0
sI7
F0.0
sI8
F0.0
sI9
F2.0
sI10
F0.0
sI11
F2.0
sI12
F2.0
sI13
F2.0
sI14
F0.0
sI15
F2.0
ssbsg55
g0
(g56
g2
Ntp2786
Rp2787
(dp2788
g60
S'republican'
p2789
sbsba(iMethods
Instance
p2790
(dp2791
g50
(iMethods
FeatureVector
p2792
(dp2793
g53
(dp2794
I0
F0.0
sI1
F2.0
sI2
F0.0
sI3
F2.0
sI4
F2.0
sI5
F2.0
sI6
F0.0
sI7
F0.0
sI8
F0.0
sI9
F2.0
sI10
F0.0
sI11
F2.0
sI12
F2.0
sI13
F2.0
sI14
F0.0
sI15
F0.0
ssbsg55
g0
(g56
g2
Ntp2795
Rp2796
(dp2797
g60
S'republican'
p2798
sbsba(iMethods
Instance
p2799
(dp2800
g50
(iMethods
FeatureVector
p2801
(dp2802
g53
(dp2803
I0
F0.0
sI1
F0.0
sI2
F0.0
sI3
F2.0
sI4
F2.0
sI5
F0.0
sI6
F0.0
sI7
F0.0
sI8
F0.0
sI9
F0.0
sI10
F0.0
sI11
F2.0
sI12
F2.0
sI13
F2.0
sI14
F0.0
sI15
F2.0
ssbsg55
g0
(g56
g2
Ntp2804
Rp2805
(dp2806
g60
S'republican'
p2807
sbsba(iMethods
Instance
p2808
(dp2809
g50
(iMethods
FeatureVector
p2810
(dp2811
g53
(dp2812
I0
F0.0
sI1
F2.0
sI2
F0.0
sI3
F2.0
sI4
F2.0
sI5
F2.0
sI6
F0.0
sI7
F0.0
sI8
F0.0
sI9
F2.0
sI10
F0.0
sI11
F1.0
sI12
F2.0
sI13
F2.0
sI14
F0.0
sI15
F0.0
ssbsg55
g0
(g56
g2
Ntp2813
Rp2814
(dp2815
g60
S'republican'
p2816
sbsba(iMethods
Instance
p2817
(dp2818
g50
(iMethods
FeatureVector
p2819
(dp2820
g53
(dp2821
I0
F0.0
sI1
F1.0
sI2
F0.0
sI3
F2.0
sI4
F2.0
sI5
F2.0
sI6
F0.0
sI7
F0.0
sI8
F0.0
sI9
F0.0
sI10
F0.0
sI11
F2.0
sI12
F2.0
sI13
F2.0
sI14
F0.0
sI15
F2.0
ssbsg55
g0
(g56
g2
Ntp2822
Rp2823
(dp2824
g60
S'republican'
p2825
sbsba(iMethods
Instance
p2826
(dp2827
g50
(iMethods
FeatureVector
p2828
(dp2829
g53
(dp2830
I0
F0.0
sI1
F2.0
sI2
F0.0
sI3
F2.0
sI4
F2.0
sI5
F2.0
sI6
F0.0
sI7
F0.0
sI8
F0.0
sI9
F0.0
sI10
F0.0
sI11
F2.0
sI12
F2.0
sI13
F1.0
sI14
F0.0
sI15
F2.0
ssbsg55
g0
(g56
g2
Ntp2831
Rp2832
(dp2833
g60
S'republican'
p2834
sbsba(iMethods
Instance
p2835
(dp2836
g50
(iMethods
FeatureVector
p2837
(dp2838
g53
(dp2839
I0
F0.0
sI1
F2.0
sI2
F2.0
sI3
F2.0
sI4
F2.0
sI5
F2.0
sI6
F2.0
sI7
F0.0
sI8
F2.0
sI9
F2.0
sI10
F0.0
sI11
F2.0
sI12
F2.0
sI13
F2.0
sI14
F0.0
sI15
F2.0
ssbsg55
g0
(g56
g2
Ntp2840
Rp2841
(dp2842
g60
S'republican'
p2843
sbsba(iMethods
Instance
p2844
(dp2845
g50
(iMethods
FeatureVector
p2846
(dp2847
g53
(dp2848
I0
F0.0
sI1
F2.0
sI2
F0.0
sI3
F2.0
sI4
F2.0
sI5
F2.0
sI6
F0.0
sI7
F0.0
sI8
F0.0
sI9
F0.0
sI10
F0.0
sI11
F2.0
sI12
F2.0
sI13
F2.0
sI14
F0.0
sI15
F2.0
ssbsg55
g0
(g56
g2
Ntp2849
Rp2850
(dp2851
g60
S'republican'
p2852
sbsba(iMethods
Instance
p2853
(dp2854
g50
(iMethods
FeatureVector
p2855
(dp2856
g53
(dp2857
I0
F0.0
sI1
F2.0
sI2
F0.0
sI3
F2.0
sI4
F2.0
sI5
F2.0
sI6
F0.0
sI7
F0.0
sI8
F2.0
sI9
F2.0
sI10
F0.0
sI11
F2.0
sI12
F2.0
sI13
F2.0
sI14
F0.0
sI15
F2.0
ssbsg55
g0
(g56
g2
Ntp2858
Rp2859
(dp2860
g60
S'republican'
p2861
sbsba(iMethods
Instance
p2862
(dp2863
g50
(iMethods
FeatureVector
p2864
(dp2865
g53
(dp2866
I0
F0.0
sI1
F2.0
sI2
F0.0
sI3
F2.0
sI4
F2.0
sI5
F2.0
sI6
F0.0
sI7
F0.0
sI8
F0.0
sI9
F2.0
sI10
F0.0
sI11
F2.0
sI12
F2.0
sI13
F2.0
sI14
F0.0
sI15
F2.0
ssbsg55
g0
(g56
g2
Ntp2867
Rp2868
(dp2869
g60
S'republican'
p2870
sbsba(iMethods
Instance
p2871
(dp2872
g50
(iMethods
FeatureVector
p2873
(dp2874
g53
(dp2875
I0
F0.0
sI1
F0.0
sI2
F0.0
sI3
F2.0
sI4
F2.0
sI5
F2.0
sI6
F0.0
sI7
F0.0
sI8
F0.0
sI9
F2.0
sI10
F0.0
sI11
F2.0
sI12
F0.0
sI13
F2.0
sI14
F0.0
sI15
F2.0
ssbsg55
g0
(g56
g2
Ntp2876
Rp2877
(dp2878
g60
S'republican'
p2879
sbsbag2159
a(iMethods
Instance
p2880
(dp2881
g50
(iMethods
FeatureVector
p2882
(dp2883
g53
(dp2884
I0
F0.0
sI1
F0.0
sI2
F0.0
sI3
F2.0
sI4
F0.0
sI5
F2.0
sI6
F2.0
sI7
F1.0
sI8
F2.0
sI9
F0.0
sI10
F0.0
sI11
F2.0
sI12
F2.0
sI13
F2.0
sI14
F0.0
sI15
F2.0
ssbsg55
g0
(g56
g2
Ntp2885
Rp2886
(dp2887
g60
S'republican'
p2888
sbsba(iMethods
Instance
p2889
(dp2890
g50
(iMethods
FeatureVector
p2891
(dp2892
g53
(dp2893
I0
F0.0
sI1
F2.0
sI2
F0.0
sI3
F2.0
sI4
F2.0
sI5
F2.0
sI6
F1.0
sI7
F0.0
sI8
F0.0
sI9
F0.0
sI10
F0.0
sI11
F1.0
sI12
F2.0
sI13
F2.0
sI14
F0.0
sI15
F0.0
ssbsg55
g0
(g56
g2
Ntp2894
Rp2895
(dp2896
g60
S'republican'
p2897
sbsba(iMethods
Instance
p2898
(dp2899
g50
(iMethods
FeatureVector
p2900
(dp2901
g53
(dp2902
I0
F0.0
sI1
F2.0
sI2
F0.0
sI3
F2.0
sI4
F2.0
sI5
F2.0
sI6
F0.0
sI7
F0.0
sI8
F0.0
sI9
F0.0
sI10
F0.0
sI11
F2.0
sI12
F2.0
sI13
F2.0
sI14
F0.0
sI15
F0.0
ssbsg55
g0
(g56
g2
Ntp2903
Rp2904
(dp2905
g60
S'republican'
p2906
sbsba(iMethods
Instance
p2907
(dp2908
g50
(iMethods
FeatureVector
p2909
(dp2910
g53
(dp2911
I0
F0.0
sI1
F2.0
sI2
F0.0
sI3
F2.0
sI4
F2.0
sI5
F2.0
sI6
F0.0
sI7
F0.0
sI8
F0.0
sI9
F0.0
sI10
F0.0
sI11
F2.0
sI12
F2.0
sI13
F2.0
sI14
F0.0
sI15
F0.0
ssbsg55
g0
(g56
g2
Ntp2912
Rp2913
(dp2914
g60
S'republican'
p2915
sbsba(iMethods
Instance
p2916
(dp2917
g50
(iMethods
FeatureVector
p2918
(dp2919
g53
(dp2920
I0
F0.0
sI1
F2.0
sI2
F0.0
sI3
F2.0
sI4
F2.0
sI5
F2.0
sI6
F0.0
sI7
F0.0
sI8
F0.0
sI9
F0.0
sI10
F0.0
sI11
F2.0
sI12
F2.0
sI13
F2.0
sI14
F0.0
sI15
F2.0
ssbsg55
g0
(g56
g2
Ntp2921
Rp2922
(dp2923
g60
S'republican'
p2924
sbsba(iMethods
Instance
p2925
(dp2926
g50
(iMethods
FeatureVector
p2927
(dp2928
g53
(dp2929
I0
F0.0
sI1
F0.0
sI2
F0.0
sI3
F2.0
sI4
F2.0
sI5
F0.0
sI6
F0.0
sI7
F0.0
sI8
F0.0
sI9
F0.0
sI10
F0.0
sI11
F2.0
sI12
F0.0
sI13
F2.0
sI14
F0.0
sI15
F0.0
ssbsg55
g0
(g56
g2
Ntp2930
Rp2931
(dp2932
g60
S'republican'
p2933
sbsba(iMethods
Instance
p2934
(dp2935
g50
(iMethods
FeatureVector
p2936
(dp2937
g53
(dp2938
I0
F0.0
sI1
F0.0
sI2
F0.0
sI3
F2.0
sI4
F2.0
sI5
F0.0
sI6
F0.0
sI7
F0.0
sI8
F0.0
sI9
F0.0
sI10
F0.0
sI11
F2.0
sI12
F0.0
sI13
F2.0
sI14
F1.0
sI15
F2.0
ssbsg55
g0
(g56
g2
Ntp2939
Rp2940
(dp2941
g60
S'republican'
p2942
sbsba(iMethods
Instance
p2943
(dp2944
g50
(iMethods
FeatureVector
p2945
(dp2946
g53
(dp2947
I0
F0.0
sI1
F0.0
sI2
F0.0
sI3
F2.0
sI4
F2.0
sI5
F2.0
sI6
F0.0
sI7
F0.0
sI8
F0.0
sI9
F2.0
sI10
F0.0
sI11
F2.0
sI12
F0.0
sI13
F2.0
sI14
F0.0
sI15
F2.0
ssbsg55
g0
(g56
g2
Ntp2948
Rp2949
(dp2950
g60
S'republican'
p2951
sbsba(iMethods
Instance
p2952
(dp2953
g50
(iMethods
FeatureVector
p2954
(dp2955
g53
(dp2956
I0
F0.0
sI1
F0.0
sI2
F0.0
sI3
F2.0
sI4
F2.0
sI5
F0.0
sI6
F2.0
sI7
F2.0
sI8
F0.0
sI9
F2.0
sI10
F0.0
sI11
F2.0
sI12
F2.0
sI13
F2.0
sI14
F1.0
sI15
F2.0
ssbsg55
g0
(g56
g2
Ntp2957
Rp2958
(dp2959
g60
S'republican'
p2960
sbsbag2168
ag2123
a(iMethods
Instance
p2961
(dp2962
g50
(iMethods
FeatureVector
p2963
(dp2964
g53
(dp2965
I0
F0.0
sI1
F0.0
sI2
F2.0
sI3
F2.0
sI4
F2.0
sI5
F2.0
sI6
F2.0
sI7
F2.0
sI8
F0.0
sI9
F2.0
sI10
F0.0
sI11
F0.0
sI12
F0.0
sI13
F2.0
sI14
F0.0
sI15
F2.0
ssbsg55
g0
(g56
g2
Ntp2966
Rp2967
(dp2968
g60
S'republican'
p2969
sbsba(iMethods
Instance
p2970
(dp2971
g50
(iMethods
FeatureVector
p2972
(dp2973
g53
(dp2974
I0
F0.0
sI1
F0.0
sI2
F0.0
sI3
F2.0
sI4
F2.0
sI5
F2.0
sI6
F0.0
sI7
F0.0
sI8
F0.0
sI9
F0.0
sI10
F0.0
sI11
F2.0
sI12
F2.0
sI13
F2.0
sI14
F0.0
sI15
F2.0
ssbsg55
g0
(g56
g2
Ntp2975
Rp2976
(dp2977
g60
S'republican'
p2978
sbsba(iMethods
Instance
p2979
(dp2980
g50
(iMethods
FeatureVector
p2981
(dp2982
g53
(dp2983
I0
F0.0
sI1
F0.0
sI2
F0.0
sI3
F2.0
sI4
F2.0
sI5
F2.0
sI6
F0.0
sI7
F0.0
sI8
F0.0
sI9
F2.0
sI10
F0.0
sI11
F2.0
sI12
F2.0
sI13
F2.0
sI14
F0.0
sI15
F0.0
ssbsg55
g0
(g56
g2
Ntp2984
Rp2985
(dp2986
g60
S'republican'
p2987
sbsba(iMethods
Instance
p2988
(dp2989
g50
(iMethods
FeatureVector
p2990
(dp2991
g53
(dp2992
I0
F2.0
sI1
F0.0
sI2
F2.0
sI3
F2.0
sI4
F2.0
sI5
F2.0
sI6
F2.0
sI7
F2.0
sI8
F0.0
sI9
F0.0
sI10
F0.0
sI11
F0.0
sI12
F0.0
sI13
F2.0
sI14
F0.0
sI15
F1.0
ssbsg55
g0
(g56
g2
Ntp2993
Rp2994
(dp2995
g60
S'republican'
p2996
sbsba(iMethods
Instance
p2997
(dp2998
g50
(iMethods
FeatureVector
p2999
(dp3000
g53
(dp3001
I0
F2.0
sI1
F0.0
sI2
F0.0
sI3
F2.0
sI4
F2.0
sI5
F2.0
sI6
F0.0
sI7
F0.0
sI8
F0.0
sI9
F2.0
sI10
F0.0
sI11
F1.0
sI12
F2.0
sI13
F2.0
sI14
F0.0
sI15
F0.0
ssbsg55
g0
(g56
g2
Ntp3002
Rp3003
(dp3004
g60
S'republican'
p3005
sbsba(iMethods
Instance
p3006
(dp3007
g50
(iMethods
FeatureVector
p3008
(dp3009
g53
(dp3010
I0
F0.0
sI1
F0.0
sI2
F0.0
sI3
F2.0
sI4
F2.0
sI5
F2.0
sI6
F0.0
sI7
F0.0
sI8
F0.0
sI9
F0.0
sI10
F0.0
sI11
F2.0
sI12
F2.0
sI13
F2.0
sI14
F0.0
sI15
F2.0
ssbsg55
g0
(g56
g2
Ntp3011
Rp3012
(dp3013
g60
S'republican'
p3014
sbsba(iMethods
Instance
p3015
(dp3016
g50
(iMethods
FeatureVector
p3017
(dp3018
g53
(dp3019
I0
F0.0
sI1
F2.0
sI2
F0.0
sI3
F2.0
sI4
F2.0
sI5
F2.0
sI6
F1.0
sI7
F1.0
sI8
F0.0
sI9
F2.0
sI10
F0.0
sI11
F2.0
sI12
F1.0
sI13
F1.0
sI14
F1.0
sI15
F1.0
ssbsg55
g0
(g56
g2
Ntp3020
Rp3021
(dp3022
g60
S'republican'
p3023
sbsbag2177
a(iMethods
Instance
p3024
(dp3025
g50
(iMethods
FeatureVector
p3026
(dp3027
g53
(dp3028
I0
F0.0
sI1
F0.0
sI2
F0.0
sI3
F2.0
sI4
F2.0
sI5
F0.0
sI6
F2.0
sI7
F2.0
sI8
F2.0
sI9
F2.0
sI10
F0.0
sI11
F2.0
sI12
F2.0
sI13
F2.0
sI14
F0.0
sI15
F2.0
ssbsg55
g0
(g56
g2
Ntp3029
Rp3030
(dp3031
g60
S'republican'
p3032
sbsba(iMethods
Instance
p3033
(dp3034
g50
(iMethods
FeatureVector
p3035
(dp3036
g53
(dp3037
I0
F0.0
sI1
F0.0
sI2
F0.0
sI3
F2.0
sI4
F2.0
sI5
F2.0
sI6
F2.0
sI7
F0.0
sI8
F0.0
sI9
F2.0
sI10
F0.0
sI11
F2.0
sI12
F2.0
sI13
F2.0
sI14
F0.0
sI15
F2.0
ssbsg55
g0
(g56
g2
Ntp3038
Rp3039
(dp3040
g60
S'republican'
p3041
sbsba(iMethods
Instance
p3042
(dp3043
g50
(iMethods
FeatureVector
p3044
(dp3045
g53
(dp3046
I0
F0.0
sI1
F0.0
sI2
F0.0
sI3
F2.0
sI4
F2.0
sI5
F2.0
sI6
F0.0
sI7
F0.0
sI8
F0.0
sI9
F0.0
sI10
F0.0
sI11
F2.0
sI12
F2.0
sI13
F2.0
sI14
F0.0
sI15
F0.0
ssbsg55
g0
(g56
g2
Ntp3047
Rp3048
(dp3049
g60
S'republican'
p3050
sbsba(iMethods
Instance
p3051
(dp3052
g50
(iMethods
FeatureVector
p3053
(dp3054
g53
(dp3055
I0
F0.0
sI1
F2.0
sI2
F0.0
sI3
F2.0
sI4
F2.0
sI5
F2.0
sI6
F0.0
sI7
F0.0
sI8
F0.0
sI9
F2.0
sI10
F0.0
sI11
F2.0
sI12
F2.0
sI13
F2.0
sI14
F0.0
sI15
F1.0
ssbsg55
g0
(g56
g2
Ntp3056
Rp3057
(dp3058
g60
S'republican'
p3059
sbsba(iMethods
Instance
p3060
(dp3061
g50
(iMethods
FeatureVector
p3062
(dp3063
g53
(dp3064
I0
F0.0
sI1
F0.0
sI2
F0.0
sI3
F2.0
sI4
F2.0
sI5
F2.0
sI6
F0.0
sI7
F0.0
sI8
F0.0
sI9
F2.0
sI10
F0.0
sI11
F2.0
sI12
F2.0
sI13
F2.0
sI14
F0.0
sI15
F0.0
ssbsg55
g0
(g56
g2
Ntp3065
Rp3066
(dp3067
g60
S'republican'
p3068
sbsba(iMethods
Instance
p3069
(dp3070
g50
(iMethods
FeatureVector
p3071
(dp3072
g53
(dp3073
I0
F0.0
sI1
F0.0
sI2
F0.0
sI3
F2.0
sI4
F2.0
sI5
F2.0
sI6
F0.0
sI7
F0.0
sI8
F0.0
sI9
F0.0
sI10
F0.0
sI11
F2.0
sI12
F2.0
sI13
F2.0
sI14
F0.0
sI15
F0.0
ssbsg55
g0
(g56
g2
Ntp3074
Rp3075
(dp3076
g60
S'republican'
p3077
sbsba(iMethods
Instance
p3078
(dp3079
g50
(iMethods
FeatureVector
p3080
(dp3081
g53
(dp3082
I0
F0.0
sI1
F0.0
sI2
F0.0
sI3
F2.0
sI4
F2.0
sI5
F2.0
sI6
F0.0
sI7
F0.0
sI8
F0.0
sI9
F2.0
sI10
F0.0
sI11
F2.0
sI12
F2.0
sI13
F2.0
sI14
F0.0
sI15
F0.0
ssbsg55
g0
(g56
g2
Ntp3083
Rp3084
(dp3085
g60
S'republican'
p3086
sbsbag2186
a(iMethods
Instance
p3087
(dp3088
g50
(iMethods
FeatureVector
p3089
(dp3090
g53
(dp3091
I0
F0.0
sI1
F2.0
sI2
F2.0
sI3
F2.0
sI4
F2.0
sI5
F2.0
sI6
F0.0
sI7
F0.0
sI8
F0.0
sI9
F2.0
sI10
F0.0
sI11
F2.0
sI12
F2.0
sI13
F2.0
sI14
F0.0
sI15
F2.0
ssbsg55
g0
(g56
g2
Ntp3092
Rp3093
(dp3094
g60
S'republican'
p3095
sbsbag2096
a(iMethods
Instance
p3096
(dp3097
g50
(iMethods
FeatureVector
p3098
(dp3099
g53
(dp3100
I0
F0.0
sI1
F2.0
sI2
F0.0
sI3
F2.0
sI4
F2.0
sI5
F2.0
sI6
F0.0
sI7
F0.0
sI8
F0.0
sI9
F0.0
sI10
F0.0
sI11
F2.0
sI12
F2.0
sI13
F2.0
sI14
F0.0
sI15
F2.0
ssbsg55
g0
(g56
g2
Ntp3101
Rp3102
(dp3103
g60
S'republican'
p3104
sbsba(iMethods
Instance
p3105
(dp3106
g50
(iMethods
FeatureVector
p3107
(dp3108
g53
(dp3109
I0
F0.0
sI1
F2.0
sI2
F0.0
sI3
F2.0
sI4
F2.0
sI5
F2.0
sI6
F0.0
sI7
F0.0
sI8
F0.0
sI9
F2.0
sI10
F0.0
sI11
F2.0
sI12
F2.0
sI13
F2.0
sI14
F0.0
sI15
F0.0
ssbsg55
g0
(g56
g2
Ntp3110
Rp3111
(dp3112
g60
S'republican'
p3113
sbsba(iMethods
Instance
p3114
(dp3115
g50
(iMethods
FeatureVector
p3116
(dp3117
g53
(dp3118
I0
F0.0
sI1
F0.0
sI2
F0.0
sI3
F2.0
sI4
F2.0
sI5
F0.0
sI6
F2.0
sI7
F0.0
sI8
F2.0
sI9
F2.0
sI10
F0.0
sI11
F0.0
sI12
F0.0
sI13
F2.0
sI14
F0.0
sI15
F2.0
ssbsg55
g0
(g56
g2
Ntp3119
Rp3120
(dp3121
g60
S'republican'
p3122
sbsbag2195
a(iMethods
Instance
p3123
(dp3124
g50
(iMethods
FeatureVector
p3125
(dp3126
g53
(dp3127
I0
F0.0
sI1
F0.0
sI2
F0.0
sI3
F2.0
sI4
F2.0
sI5
F2.0
sI6
F0.0
sI7
F0.0
sI8
F0.0
sI9
F2.0
sI10
F0.0
sI11
F2.0
sI12
F2.0
sI13
F2.0
sI14
F0.0
sI15
F2.0
ssbsg55
g0
(g56
g2
Ntp3128
Rp3129
(dp3130
g60
S'republican'
p3131
sbsba(iMethods
Instance
p3132
(dp3133
g50
(iMethods
FeatureVector
p3134
(dp3135
g53
(dp3136
I0
F2.0
sI1
F0.0
sI2
F0.0
sI3
F2.0
sI4
F2.0
sI5
F2.0
sI6
F0.0
sI7
F0.0
sI8
F0.0
sI9
F2.0
sI10
F0.0
sI11
F2.0
sI12
F2.0
sI13
F2.0
sI14
F0.0
sI15
F0.0
ssbsg55
g0
(g56
g2
Ntp3137
Rp3138
(dp3139
g60
S'republican'
p3140
sbsbasbag27
(g28
(S'S10'
p3141
I0
I1
tp3142
Rp3143
(I3
S'|'
p3144
NNNI10
I1
I0
tp3145
bS'republican'
p3146
tp3147
Rp3148
a(iNode
Node
p3149
(dp3150
g13
(lp3151
(iNode
Node
p3152
(dp3153
g13
(lp3154
g27
(g28
(S'S8'
p3155
I0
I1
tp3156
Rp3157
(I3
S'|'
p3158
NNNI8
I1
I0
tp3159
bS'democrat'
p3160
tp3161
Rp3162
ag27
(g28
(S'S10'
p3163
I0
I1
tp3164
Rp3165
(I3
S'|'
p3166
NNNI10
I1
I0
tp3167
bS'republican'
p3168
tp3169
Rp3170
asg45
I4
sg46
(lp3171
(iMethods
Instance
p3172
(dp3173
g50
(iMethods
FeatureVector
p3174
(dp3175
g53
(dp3176
I0
F0.0
sI1
F2.0
sI2
F0.0
sI3
F2.0
sI4
F2.0
sI5
F2.0
sI6
F0.0
sI7
F0.0
sI8
F0.0
sI9
F0.0
sI10
F2.0
sI11
F1.0
sI12
F2.0
sI13
F2.0
sI14
F1.0
sI15
F1.0
ssbsg55
g0
(g56
g2
Ntp3177
Rp3178
(dp3179
g60
S'republican'
p3180
sbsba(iMethods
Instance
p3181
(dp3182
g50
(iMethods
FeatureVector
p3183
(dp3184
g53
(dp3185
I0
F0.0
sI1
F2.0
sI2
F0.0
sI3
F2.0
sI4
F2.0
sI5
F2.0
sI6
F0.0
sI7
F0.0
sI8
F0.0
sI9
F2.0
sI10
F2.0
sI11
F2.0
sI12
F2.0
sI13
F2.0
sI14
F0.0
sI15
F0.0
ssbsg55
g0
(g56
g2
Ntp3186
Rp3187
(dp3188
g60
S'republican'
p3189
sbsba(iMethods
Instance
p3190
(dp3191
g50
(iMethods
FeatureVector
p3192
(dp3193
g53
(dp3194
I0
F0.0
sI1
F2.0
sI2
F0.0
sI3
F2.0
sI4
F2.0
sI5
F2.0
sI6
F0.0
sI7
F0.0
sI8
F0.0
sI9
F2.0
sI10
F2.0
sI11
F2.0
sI12
F2.0
sI13
F2.0
sI14
F0.0
sI15
F2.0
ssbsg55
g0
(g56
g2
Ntp3195
Rp3196
(dp3197
g60
S'republican'
p3198
sbsba(iMethods
Instance
p3199
(dp3200
g50
(iMethods
FeatureVector
p3201
(dp3202
g53
(dp3203
I0
F0.0
sI1
F2.0
sI2
F0.0
sI3
F2.0
sI4
F2.0
sI5
F2.0
sI6
F2.0
sI7
F0.0
sI8
F0.0
sI9
F0.0
sI10
F2.0
sI11
F2.0
sI12
F2.0
sI13
F2.0
sI14
F0.0
sI15
F2.0
ssbsg55
g0
(g56
g2
Ntp3204
Rp3205
(dp3206
g60
S'republican'
p3207
sbsba(iMethods
Instance
p3208
(dp3209
g50
(iMethods
FeatureVector
p3210
(dp3211
g53
(dp3212
I0
F0.0
sI1
F2.0
sI2
F0.0
sI3
F2.0
sI4
F2.0
sI5
F2.0
sI6
F0.0
sI7
F0.0
sI8
F0.0
sI9
F2.0
sI10
F2.0
sI11
F2.0
sI12
F2.0
sI13
F0.0
sI14
F0.0
sI15
F2.0
ssbsg55
g0
(g56
g2
Ntp3213
Rp3214
(dp3215
g60
S'republican'
p3216
sbsba(iMethods
Instance
p3217
(dp3218
g50
(iMethods
FeatureVector
p3219
(dp3220
g53
(dp3221
I0
F0.0
sI1
F2.0
sI2
F0.0
sI3
F2.0
sI4
F2.0
sI5
F2.0
sI6
F0.0
sI7
F0.0
sI8
F0.0
sI9
F2.0
sI10
F2.0
sI11
F2.0
sI12
F2.0
sI13
F2.0
sI14
F0.0
sI15
F2.0
ssbsg55
g0
(g56
g2
Ntp3222
Rp3223
(dp3224
g60
S'republican'
p3225
sbsba(iMethods
Instance
p3226
(dp3227
g50
(iMethods
FeatureVector
p3228
(dp3229
g53
(dp3230
I0
F2.0
sI1
F2.0
sI2
F0.0
sI3
F2.0
sI4
F2.0
sI5
F2.0
sI6
F0.0
sI7
F1.0
sI8
F0.0
sI9
F0.0
sI10
F2.0
sI11
F2.0
sI12
F2.0
sI13
F2.0
sI14
F0.0
sI15
F0.0
ssbsg55
g0
(g56
g2
Ntp3231
Rp3232
(dp3233
g60
S'republican'
p3234
sbsba(iMethods
Instance
p3235
(dp3236
g50
(iMethods
FeatureVector
p3237
(dp3238
g53
(dp3239
I0
F0.0
sI1
F2.0
sI2
F0.0
sI3
F2.0
sI4
F2.0
sI5
F2.0
sI6
F2.0
sI7
F2.0
sI8
F0.0
sI9
F0.0
sI10
F2.0
sI11
F2.0
sI12
F2.0
sI13
F2.0
sI14
F2.0
sI15
F2.0
ssbsg55
g0
(g56
g2
Ntp3240
Rp3241
(dp3242
g60
S'republican'
p3243
sbsba(iMethods
Instance
p3244
(dp3245
g50
(iMethods
FeatureVector
p3246
(dp3247
g53
(dp3248
I0
F0.0
sI1
F2.0
sI2
F0.0
sI3
F2.0
sI4
F2.0
sI5
F2.0
sI6
F0.0
sI7
F0.0
sI8
F0.0
sI9
F0.0
sI10
F2.0
sI11
F2.0
sI12
F2.0
sI13
F2.0
sI14
F0.0
sI15
F0.0
ssbsg55
g0
(g56
g2
Ntp3249
Rp3250
(dp3251
g60
S'republican'
p3252
sbsba(iMethods
Instance
p3253
(dp3254
g50
(iMethods
FeatureVector
p3255
(dp3256
g53
(dp3257
I0
F2.0
sI1
F2.0
sI2
F0.0
sI3
F2.0
sI4
F0.0
sI5
F0.0
sI6
F2.0
sI7
F2.0
sI8
F2.0
sI9
F0.0
sI10
F2.0
sI11
F0.0
sI12
F0.0
sI13
F2.0
sI14
F0.0
sI15
F2.0
ssbsg55
g0
(g56
g2
Ntp3258
Rp3259
(dp3260
g60
S'democrat'
p3261
sbsba(iMethods
Instance
p3262
(dp3263
g50
(iMethods
FeatureVector
p3264
(dp3265
g53
(dp3266
I0
F0.0
sI1
F0.0
sI2
F0.0
sI3
F2.0
sI4
F2.0
sI5
F2.0
sI6
F0.0
sI7
F0.0
sI8
F0.0
sI9
F2.0
sI10
F2.0
sI11
F2.0
sI12
F2.0
sI13
F2.0
sI14
F0.0
sI15
F1.0
ssbsg55
g0
(g56
g2
Ntp3267
Rp3268
(dp3269
g60
S'republican'
p3270
sbsba(iMethods
Instance
p3271
(dp3272
g50
(iMethods
FeatureVector
p3273
(dp3274
g53
(dp3275
I0
F2.0
sI1
F0.0
sI2
F0.0
sI3
F2.0
sI4
F2.0
sI5
F2.0
sI6
F0.0
sI7
F0.0
sI8
F0.0
sI9
F0.0
sI10
F2.0
sI11
F2.0
sI12
F2.0
sI13
F2.0
sI14
F0.0
sI15
F0.0
ssbsg55
g0
(g56
g2
Ntp3276
Rp3277
(dp3278
g60
S'republican'
p3279
sbsba(iMethods
Instance
p3280
(dp3281
g50
(iMethods
FeatureVector
p3282
(dp3283
g53
(dp3284
I0
F0.0
sI1
F0.0
sI2
F0.0
sI3
F2.0
sI4
F2.0
sI5
F2.0
sI6
F0.0
sI7
F0.0
sI8
F0.0
sI9
F2.0
sI10
F2.0
sI11
F2.0
sI12
F0.0
sI13
F2.0
sI14
F0.0
sI15
F2.0
ssbsg55
g0
(g56
g2
Ntp3285
Rp3286
(dp3287
g60
S'republican'
p3288
sbsbasbag27
(g28
(S'S8'
p3289
I0
I1
tp3290
Rp3291
(I3
S'|'
p3292
NNNI8
I1
I0
tp3293
bS'democrat'
p3294
tp3295
Rp3296
a(iNode
Node
p3297
(dp3298
g13
(lp3299
g27
(g28
(S'S8'
p3300
I0
I1
tp3301
Rp3302
(I3
S'|'
p3303
NNNI8
I1
I0
tp3304
bS'democrat'
p3305
tp3306
Rp3307
ag27
(g28
(S'S10'
p3308
I0
I1
tp3309
Rp3310
(I3
S'|'
p3311
NNNI10
I1
I0
tp3312
bS'republican'
p3313
tp3314
Rp3315
asg45
I0
sg46
(lp3316
(iMethods
Instance
p3317
(dp3318
g50
(iMethods
FeatureVector
p3319
(dp3320
g53
(dp3321
I0
F2.0
sI1
F2.0
sI2
F2.0
sI3
F2.0
sI4
F0.0
sI5
F0.0
sI6
F2.0
sI7
F2.0
sI8
F2.0
sI9
F2.0
sI10
F2.0
sI11
F0.0
sI12
F0.0
sI13
F2.0
sI14
F0.0
sI15
F2.0
ssbsg55
g0
(g56
g2
Ntp3322
Rp3323
(dp3324
g60
S'republican'
p3325
sbsba(iMethods
Instance
p3326
(dp3327
g50
(iMethods
FeatureVector
p3328
(dp3329
g53
(dp3330
I0
F0.0
sI1
F2.0
sI2
F2.0
sI3
F2.0
sI4
F2.0
sI5
F2.0
sI6
F0.0
sI7
F0.0
sI8
F0.0
sI9
F2.0
sI10
F2.0
sI11
F0.0
sI12
F2.0
sI13
F2.0
sI14
F0.0
sI15
F0.0
ssbsg55
g0
(g56
g2
Ntp3331
Rp3332
(dp3333
g60
S'democrat'
p3334
sbsba(iMethods
Instance
p3335
(dp3336
g50
(iMethods
FeatureVector
p3337
(dp3338
g53
(dp3339
I0
F0.0
sI1
F2.0
sI2
F2.0
sI3
F2.0
sI4
F2.0
sI5
F2.0
sI6
F0.0
sI7
F2.0
sI8
F2.0
sI9
F2.0
sI10
F2.0
sI11
F2.0
sI12
F2.0
sI13
F2.0
sI14
F0.0
sI15
F2.0
ssbsg55
g0
(g56
g2
Ntp3340
Rp3341
(dp3342
g60
S'democrat'
p3343
sbsba(iMethods
Instance
p3344
(dp3345
g50
(iMethods
FeatureVector
p3346
(dp3347
g53
(dp3348
I0
F2.0
sI1
F0.0
sI2
F2.0
sI3
F2.0
sI4
F2.0
sI5
F2.0
sI6
F2.0
sI7
F2.0
sI8
F0.0
sI9
F2.0
sI10
F2.0
sI11
F2.0
sI12
F0.0
sI13
F2.0
sI14
F2.0
sI15
F2.0
ssbsg55
g0
(g56
g2
Ntp3349
Rp3350
(dp3351
g60
S'republican'
p3352
sbsba(iMethods
Instance
p3353
(dp3354
g50
(iMethods
FeatureVector
p3355
(dp3356
g53
(dp3357
I0
F0.0
sI1
F2.0
sI2
F2.0
sI3
F2.0
sI4
F2.0
sI5
F2.0
sI6
F0.0
sI7
F0.0
sI8
F0.0
sI9
F2.0
sI10
F2.0
sI11
F2.0
sI12
F2.0
sI13
F2.0
sI14
F2.0
sI15
F1.0
ssbsg55
g0
(g56
g2
Ntp3358
Rp3359
(dp3360
g60
S'democrat'
p3361
sbsbasbasg45
I2
sg46
(lp3362
g3172
ag3181
ag3190
ag3199
ag3317
ag3326
ag3335
ag3208
ag3217
a(iMethods
Instance
p3363
(dp3364
g50
(iMethods
FeatureVector
p3365
(dp3366
g53
(dp3367
I0
F2.0
sI1
F2.0
sI2
F1.0
sI3
F2.0
sI4
F2.0
sI5
F2.0
sI6
F0.0
sI7
F0.0
sI8
F2.0
sI9
F0.0
sI10
F2.0
sI11
F1.0
sI12
F2.0
sI13
F2.0
sI14
F0.0
sI15
F0.0
ssbsg55
g0
(g56
g2
Ntp3368
Rp3369
(dp3370
g60
S'democrat'
p3371
sbsbag3226
ag3344
ag3353
ag3235
ag3244
ag3253
ag3262
ag3271
ag3280
asbasg45
I10
sg46
(lp3372
(iMethods
Instance
p3373
(dp3374
g50
(iMethods
FeatureVector
p3375
(dp3376
g53
(dp3377
I0
F0.0
sI1
F2.0
sI2
F0.0
sI3
F2.0
sI4
F2.0
sI5
F2.0
sI6
F0.0
sI7
F0.0
sI8
F0.0
sI9
F2.0
sI10
F1.0
sI11
F2.0
sI12
F2.0
sI13
F2.0
sI14
F0.0
sI15
F2.0
ssbsg55
g0
(g56
g2
Ntp3378
Rp3379
(dp3380
g60
S'republican'
p3381
sbsbag2205
ag2114
ag2214
ag2223
a(iMethods
Instance
p3382
(dp3383
g50
(iMethods
FeatureVector
p3384
(dp3385
g53
(dp3386
I0
F0.0
sI1
F2.0
sI2
F0.0
sI3
F2.0
sI4
F2.0
sI5
F0.0
sI6
F0.0
sI7
F0.0
sI8
F0.0
sI9
F0.0
sI10
F1.0
sI11
F1.0
sI12
F2.0
sI13
F2.0
sI14
F0.0
sI15
F0.0
ssbsg55
g0
(g56
g2
Ntp3387
Rp3388
(dp3389
g60
S'republican'
p3390
sbsbag3172
ag2232
ag2241
ag2250
ag2259
ag2268
ag2277
ag2286
ag2295
ag2304
ag2313
ag2322
ag2331
ag2340
ag3181
ag3190
ag2349
ag2358
ag2367
ag2376
ag2385
ag3199
ag2394
ag3317
ag2403
ag3326
ag3335
ag2412
ag2421
ag2430
ag2439
ag2448
ag2457
ag2466
a(iMethods
Instance
p3391
(dp3392
g50
(iMethods
FeatureVector
p3393
(dp3394
g53
(dp3395
I0
F0.0
sI1
F0.0
sI2
F0.0
sI3
F2.0
sI4
F2.0
sI5
F2.0
sI6
F0.0
sI7
F0.0
sI8
F0.0
sI9
F2.0
sI10
F1.0
sI11
F2.0
sI12
F2.0
sI13
F2.0
sI14
F0.0
sI15
F0.0
ssbsg55
g0
(g56
g2
Ntp3396
Rp3397
(dp3398
g60
S'republican'
p3399
sbsbag2475
ag2484
ag2493
ag2502
ag2511
ag2520
ag2529
ag2538
ag2547
ag2556
ag2565
ag2574
ag2583
ag2592
ag2601
ag3208
ag2610
ag2619
ag2628
ag2637
ag3217
ag2646
ag3363
ag2655
ag3226
ag2664
ag2673
ag2682
ag2141
ag3344
ag2087
ag2691
ag2150
ag2700
ag2709
ag2718
ag2727
ag2736
ag2745
ag2754
ag2763
ag2772
ag2781
ag3353
ag2790
ag2799
ag2808
ag2817
ag2826
ag2835
ag2844
ag2853
ag2862
ag2871
ag2159
ag2880
ag2889
ag2898
ag2907
ag2916
ag2925
ag2934
ag2943
ag2952
ag2168
ag2123
ag2961
ag2970
ag2979
ag2988
ag2997
ag3006
ag3015
ag2177
ag3024
ag3033
ag3042
ag3051
ag3060
ag3069
ag3078
ag2186
ag3087
ag3235
ag2096
ag3244
ag3253
ag3096
ag3105
ag3262
ag3271
ag3280
ag3114
ag2195
ag3123
ag3132
asbasg45
I3
sg46
(lp3400
g3373
ag2205
ag1968
ag275
ag284
ag293
ag2114
ag2214
ag2223
ag302
ag3382
ag3172
ag311
ag320
ag2232
ag2241
ag329
ag338
ag2250
ag347
ag356
ag365
ag374
ag383
ag392
ag401
ag410
ag419
ag2259
ag428
ag2268
ag437
ag446
ag2277
ag455
ag2286
ag2295
ag2304
ag2313
ag464
ag473
ag482
ag491
ag500
ag509
ag518
ag527
ag536
ag545
ag2322
ag554
ag2331
ag563
ag2340
ag572
ag3181
ag3190
ag2349
ag2358
ag2367
ag581
ag2376
ag590
ag599
ag608
ag2385
ag3199
ag2394
ag617
ag626
ag635
ag3317
ag644
ag2403
ag653
ag3326
ag662
ag3335
ag671
ag2412
ag680
ag689
ag2421
ag2430
ag2439
ag698
ag2448
ag2457
ag707
ag2466
ag716
ag725
ag734
ag743
ag752
ag761
ag770
ag48
ag779
ag3391
ag177
ag788
ag797
ag97
ag1977
ag806
ag2475
ag1986
ag815
ag824
ag833
ag2484
ag842
ag2493
ag851
ag860
ag869
ag2502
ag878
ag2511
ag2520
ag2529
ag2538
ag2547
ag887
ag2556
ag2565
ag896
ag905
ag914
ag923
ag932
ag2574
ag2583
ag2592
ag2601
ag3208
ag941
ag950
ag959
ag2610
ag2619
ag2628
ag106
ag62
ag968
ag2637
ag186
ag3217
ag977
ag2646
ag3363
ag986
ag995
ag2655
ag3226
ag2664
ag1004
ag2673
ag1013
ag195
ag204
ag1022
ag2682
ag213
ag1031
ag2141
ag3344
ag2087
ag1040
ag1049
ag2691
ag1058
ag222
ag1067
ag1076
ag2150
ag1085
ag1094
ag1103
ag1112
ag1121
ag1130
ag1995
ag1139
ag1148
ag1157
ag1166
ag2700
ag1175
ag2709
ag2718
ag115
ag1184
ag1193
ag2727
ag1202
ag2736
ag1211
ag124
ag1220
ag1229
ag1238
ag1247
ag2745
ag1256
ag2754
ag2763
ag1265
ag1274
ag1283
ag2772
ag1292
ag1301
ag2781
ag3353
ag1310
ag2790
ag1319
ag1328
ag1337
ag1346
ag1355
ag2799
ag2808
ag2817
ag1364
ag1373
ag2826
ag2835
ag2844
ag2853
ag1382
ag2862
ag1391
ag2871
ag1400
ag1409
ag1418
ag2159
ag2880
ag1427
ag231
ag1436
ag1445
ag1454
ag1463
ag2889
ag2004
ag1472
ag2898
ag2907
ag1481
ag2916
ag1490
ag1499
ag2925
ag2934
ag1508
ag1517
ag1526
ag1535
ag1544
ag1553
ag1562
ag1571
ag2943
ag71
ag1580
ag1589
ag1598
ag1607
ag1616
ag2952
ag2168
ag1625
ag2123
ag2961
ag2970
ag2979
ag1634
ag2988
ag2997
ag3006
ag1643
ag1652
ag1661
ag2013
ag1670
ag1679
ag1688
ag1697
ag1706
ag1715
ag1724
ag3015
ag2177
ag1733
ag133
ag1742
ag3024
ag1751
ag3033
ag3042
ag3051
ag3060
ag3069
ag1760
ag3078
ag142
ag2186
ag1769
ag1778
ag3087
ag3235
ag2096
ag240
ag151
ag1787
ag1796
ag1805
ag1814
ag1823
ag1832
ag3244
ag249
ag3253
ag3096
ag1841
ag1850
ag3105
ag1859
ag1868
ag1877
ag1886
ag3262
ag1895
ag1904
ag1913
ag3271
ag3280
ag2022
ag1922
ag3114
ag1931
ag2195
ag3123
ag3132
asbsg46
g3400
sS'igr'
p3401
S''
p3402
sb.