ccopy_reg
_reconstructor
p0
(cNaiveBayes
NaiveBayes
p1
c__builtin__
object
p2
Ntp3
Rp4
(dp5
S'all_classes'
p6
(lp7
S'republican'
p8
aS'republican'
p9
aS'democrat'
p10
aS'democrat'
p11
aS'democrat'
p12
aS'democrat'
p13
aS'democrat'
p14
aS'republican'
p15
aS'republican'
p16
aS'democrat'
p17
aS'republican'
p18
aS'republican'
p19
aS'democrat'
p20
aS'democrat'
p21
aS'republican'
p22
aS'republican'
p23
aS'democrat'
p24
aS'democrat'
p25
aS'republican'
p26
aS'democrat'
p27
aS'democrat'
p28
aS'democrat'
p29
aS'democrat'
p30
aS'democrat'
p31
aS'democrat'
p32
aS'democrat'
p33
aS'democrat'
p34
aS'democrat'
p35
aS'republican'
p36
aS'democrat'
p37
aS'republican'
p38
aS'democrat'
p39
aS'democrat'
p40
aS'republican'
p41
aS'democrat'
p42
aS'republican'
p43
aS'republican'
p44
aS'republican'
p45
aS'republican'
p46
aS'democrat'
p47
aS'democrat'
p48
aS'democrat'
p49
aS'democrat'
p50
aS'democrat'
p51
aS'democrat'
p52
aS'democrat'
p53
aS'democrat'
p54
aS'democrat'
p55
aS'democrat'
p56
aS'republican'
p57
aS'democrat'
p58
aS'republican'
p59
aS'democrat'
p60
aS'republican'
p61
aS'democrat'
p62
aS'republican'
p63
aS'republican'
p64
aS'republican'
p65
aS'republican'
p66
aS'republican'
p67
aS'democrat'
p68
aS'republican'
p69
aS'democrat'
p70
aS'democrat'
p71
aS'democrat'
p72
aS'republican'
p73
aS'republican'
p74
aS'republican'
p75
aS'democrat'
p76
aS'democrat'
p77
aS'democrat'
p78
aS'republican'
p79
aS'democrat'
p80
aS'republican'
p81
aS'democrat'
p82
aS'democrat'
p83
aS'democrat'
p84
aS'democrat'
p85
aS'democrat'
p86
aS'republican'
p87
aS'democrat'
p88
aS'democrat'
p89
aS'republican'
p90
aS'republican'
p91
aS'republican'
p92
aS'democrat'
p93
aS'republican'
p94
aS'republican'
p95
aS'democrat'
p96
aS'republican'
p97
aS'democrat'
p98
aS'democrat'
p99
aS'democrat'
p100
aS'democrat'
p101
aS'democrat'
p102
aS'democrat'
p103
aS'democrat'
p104
aS'democrat'
p105
aS'democrat'
p106
aS'republican'
p107
aS'democrat'
p108
aS'democrat'
p109
aS'democrat'
p110
aS'democrat'
p111
aS'democrat'
p112
aS'democrat'
p113
aS'republican'
p114
aS'republican'
p115
aS'democrat'
p116
aS'democrat'
p117
aS'democrat'
p118
aS'republican'
p119
aS'democrat'
p120
aS'republican'
p121
aS'democrat'
p122
aS'democrat'
p123
aS'democrat'
p124
aS'republican'
p125
aS'democrat'
p126
aS'republican'
p127
aS'republican'
p128
aS'republican'
p129
aS'republican'
p130
aS'republican'
p131
aS'democrat'
p132
aS'republican'
p133
aS'republican'
p134
aS'democrat'
p135
aS'democrat'
p136
aS'democrat'
p137
aS'democrat'
p138
aS'democrat'
p139
aS'republican'
p140
aS'republican'
p141
aS'republican'
p142
aS'republican'
p143
aS'republican'
p144
aS'democrat'
p145
aS'democrat'
p146
aS'democrat'
p147
aS'republican'
p148
aS'republican'
p149
aS'republican'
p150
aS'democrat'
p151
aS'democrat'
p152
aS'democrat'
p153
aS'republican'
p154
aS'democrat'
p155
aS'republican'
p156
aS'democrat'
p157
aS'republican'
p158
aS'democrat'
p159
aS'democrat'
p160
aS'democrat'
p161
aS'republican'
p162
aS'republican'
p163
aS'republican'
p164
aS'democrat'
p165
aS'republican'
p166
aS'democrat'
p167
aS'democrat'
p168
aS'democrat'
p169
aS'democrat'
p170
aS'republican'
p171
aS'democrat'
p172
aS'democrat'
p173
aS'republican'
p174
aS'republican'
p175
aS'democrat'
p176
aS'democrat'
p177
aS'democrat'
p178
aS'republican'
p179
aS'democrat'
p180
aS'democrat'
p181
aS'democrat'
p182
aS'democrat'
p183
aS'republican'
p184
aS'democrat'
p185
aS'democrat'
p186
aS'democrat'
p187
aS'democrat'
p188
aS'democrat'
p189
aS'democrat'
p190
aS'democrat'
p191
aS'democrat'
p192
aS'democrat'
p193
aS'democrat'
p194
aS'democrat'
p195
aS'republican'
p196
aS'democrat'
p197
aS'republican'
p198
aS'republican'
p199
aS'democrat'
p200
aS'democrat'
p201
aS'democrat'
p202
aS'republican'
p203
aS'democrat'
p204
aS'republican'
p205
aS'democrat'
p206
aS'democrat'
p207
aS'democrat'
p208
aS'democrat'
p209
aS'democrat'
p210
aS'democrat'
p211
aS'republican'
p212
aS'democrat'
p213
aS'republican'
p214
aS'republican'
p215
aS'democrat'
p216
aS'democrat'
p217
aS'democrat'
p218
aS'republican'
p219
aS'democrat'
p220
aS'democrat'
p221
aS'republican'
p222
aS'democrat'
p223
aS'democrat'
p224
aS'republican'
p225
aS'democrat'
p226
aS'democrat'
p227
aS'democrat'
p228
aS'democrat'
p229
aS'democrat'
p230
aS'republican'
p231
aS'republican'
p232
aS'republican'
p233
aS'democrat'
p234
aS'democrat'
p235
aS'republican'
p236
aS'republican'
p237
aS'republican'
p238
aS'republican'
p239
aS'democrat'
p240
aS'republican'
p241
aS'democrat'
p242
aS'republican'
p243
aS'democrat'
p244
aS'democrat'
p245
aS'democrat'
p246
aS'republican'
p247
aS'republican'
p248
aS'democrat'
p249
aS'republican'
p250
aS'democrat'
p251
aS'democrat'
p252
aS'democrat'
p253
aS'democrat'
p254
aS'republican'
p255
aS'republican'
p256
aS'democrat'
p257
aS'republican'
p258
aS'republican'
p259
aS'democrat'
p260
aS'republican'
p261
aS'democrat'
p262
aS'democrat'
p263
aS'republican'
p264
aS'republican'
p265
aS'democrat'
p266
aS'democrat'
p267
aS'democrat'
p268
aS'democrat'
p269
aS'democrat'
p270
aS'democrat'
p271
aS'democrat'
p272
aS'democrat'
p273
aS'republican'
p274
aS'republican'
p275
aS'democrat'
p276
aS'democrat'
p277
aS'democrat'
p278
aS'democrat'
p279
aS'democrat'
p280
aS'republican'
p281
aS'republican'
p282
aS'democrat'
p283
aS'republican'
p284
aS'republican'
p285
aS'republican'
p286
aS'republican'
p287
aS'democrat'
p288
aS'republican'
p289
aS'republican'
p290
aS'republican'
p291
aS'democrat'
p292
aS'democrat'
p293
aS'democrat'
p294
aS'democrat'
p295
aS'democrat'
p296
aS'democrat'
p297
aS'democrat'
p298
aS'democrat'
p299
aS'democrat'
p300
aS'democrat'
p301
aS'democrat'
p302
aS'republican'
p303
aS'republican'
p304
aS'democrat'
p305
aS'democrat'
p306
aS'democrat'
p307
aS'republican'
p308
aS'democrat'
p309
aS'republican'
p310
aS'republican'
p311
aS'republican'
p312
aS'republican'
p313
aS'republican'
p314
aS'democrat'
p315
aS'republican'
p316
aS'democrat'
p317
aS'republican'
p318
aS'democrat'
p319
aS'democrat'
p320
aS'republican'
p321
aS'republican'
p322
aS'republican'
p323
aS'democrat'
p324
aS'democrat'
p325
aS'democrat'
p326
aS'democrat'
p327
aS'democrat'
p328
aS'democrat'
p329
aS'democrat'
p330
aS'democrat'
p331
aS'republican'
p332
aS'democrat'
p333
aS'democrat'
p334
aS'republican'
p335
aS'democrat'
p336
aS'democrat'
p337
aS'republican'
p338
aS'democrat'
p339
aS'democrat'
p340
aS'democrat'
p341
aS'democrat'
p342
aS'republican'
p343
aS'democrat'
p344
aS'democrat'
p345
aS'democrat'
p346
aS'republican'
p347
aS'republican'
p348
aS'democrat'
p349
aS'democrat'
p350
aS'republican'
p351
aS'democrat'
p352
aS'republican'
p353
aS'republican'
p354
aS'republican'
p355
asS'num_instances'
p356
I348
sS'features_list'
p357
(lp358
I0
aI1
aI2
aI3
aI4
aI5
aI6
aI7
aI8
aI9
aI10
aI11
aI12
aI13
aI14
aI15
asS'means_and_vars'
p359
(dp360
g8
(dp361
I0
(F0.867816091954023
F0.9623041505183979
tp362
sI1
(F0.9482758620689655
F0.8791612839113574
tp363
sI2
(F1.1954022988505746
F0.9415349961906679
tp364
sI3
(F0.8074712643678161
F0.9455347974427758
tp365
sI4
(F0.9568965517241379
F0.9750819835039212
tp366
sI5
(F1.1982758620689655
F0.93751863261453
tp367
sI6
(F1.1781609195402298
F0.9422306137997254
tp368
sI7
(F1.1551724137931034
F0.9441518433866616
tp369
sI8
(F1.0459770114942528
F0.9431249792970934
tp370
sI9
(F1.0086206896551724
F0.988398092020268
tp371
sI10
(F0.6752873563218391
F0.8539120209347744
tp372
sI11
(F0.8419540229885057
F0.9057852197820372
tp373
sI12
(F0.9683908045977011
F0.9471247805492128
tp374
sI13
(F1.1810344827586208
F0.9267862466461307
tp375
sI14
(F0.9224137931034483
F0.9247987677630918
tp376
sI15
(F1.4770114942528736
F0.5268475272450217
tp377
ssg10
(dp378
I0
(F0.867816091954023
F0.9623041505183979
tp379
sI1
(F0.9482758620689655
F0.8791612839113574
tp380
sI2
(F1.1954022988505746
F0.9415349961906679
tp381
sI3
(F0.8074712643678161
F0.9455347974427758
tp382
sI4
(F0.9568965517241379
F0.9750819835039212
tp383
sI5
(F1.1982758620689655
F0.93751863261453
tp384
sI6
(F1.1781609195402298
F0.9422306137997254
tp385
sI7
(F1.1551724137931034
F0.9441518433866616
tp386
sI8
(F1.0459770114942528
F0.9431249792970934
tp387
sI9
(F1.0086206896551724
F0.988398092020268
tp388
sI10
(F0.6752873563218391
F0.8539120209347744
tp389
sI11
(F0.8419540229885057
F0.9057852197820372
tp390
sI12
(F0.9683908045977011
F0.9471247805492128
tp391
sI13
(F1.1810344827586208
F0.9267862466461307
tp392
sI14
(F0.9224137931034483
F0.9247987677630918
tp393
sI15
(F1.4770114942528736
F0.5268475272450217
tp394
sssS'prior'
p395
(dp396
g8
F0.3850574712643678
sg10
F0.6149425287356322
ssS'distinct_classes'
p397
(dp398
g8
I134
sg10
I214
ssS'mean_for_attribute'
p399
(dp400
(g10
I12
tp401
F0.5420560747663551
s(g8
I1
tp402
F1.0149253731343284
s(g10
I3
tp403
F0.08878504672897196
s(g8
I13
tp404
F1.9402985074626866
s(g10
I7
tp405
F1.691588785046729
s(g8
I4
tp406
F1.9104477611940298
s(g8
I9
tp407
F1.1343283582089552
s(g10
I11
tp408
F0.29439252336448596
s(g8
I0
tp409
F0.35074626865671643
s(g10
I2
tp410
F1.7990654205607477
s(g10
I15
tp411
F1.6308411214953271
s(g8
I12
tp412
F1.6492537313432836
s(g10
I6
tp413
F1.5981308411214954
s(g8
I7
tp414
F0.29850746268656714
s(g8
I8
tp415
F0.208955223880597
s(g10
I10
tp416
F0.9439252336448598
s(g8
I3
tp417
F1.955223880597015
s(g10
I1
tp418
F0.9065420560747663
s(g10
I14
tp419
F1.341121495327103
s(g8
I15
tp420
F1.2313432835820894
s(g10
I5
tp421
F0.8551401869158879
s(g8
I6
tp422
F0.5074626865671642
s(g8
I11
tp423
F1.7164179104477613
s(g10
I9
tp424
F0.9299065420560748
s(g8
I2
tp425
F0.23134328358208955
s(g10
I0
tp426
F1.191588785046729
s(g10
I13
tp427
F0.705607476635514
s(g8
I14
tp428
F0.2537313432835821
s(g10
I4
tp429
F0.3598130841121495
s(g8
I10
tp430
F0.2462686567164179
s(g10
I8
tp431
F1.5700934579439252
s(g8
I5
tp432
F1.7462686567164178
ssS'var_for_attribute'
p433
(dp434
(g10
I12
tp435
F0.7376596024746598
s(g8
I1
tp436
F0.8719560094265504
s(g10
I3
tp437
F0.1470097845640815
s(g8
I13
tp438
F0.07159690270452242
s(g10
I7
tp439
F0.5053749286999235
s(g8
I4
tp440
F0.1573336325889354
s(g8
I9
tp441
F0.9743014252048029
s(g10
I11
tp442
F0.4340529156245883
s(g8
I0
tp443
F0.5753001907754464
s(g10
I2
tp444
F0.339717432319777
s(g10
I15
tp445
F0.29031196524943986
s(g8
I12
tp446
F0.530187408820559
s(g10
I6
tp447
F0.617085691720416
s(g8
I7
tp448
F0.4515767029514071
s(g8
I8
tp449
F0.3620244641454379
s(g10
I10
tp450
F0.9545873371067521
s(g8
I3
tp451
F0.07316799461339922
s(g10
I1
tp452
F0.8832433855469258
s(g10
I14
tp453
F0.8173621166249844
s(g8
I15
tp454
F0.8107395354056788
s(g10
I5
tp455
F0.9507481023210922
s(g8
I6
tp456
F0.7330265963416009
s(g8
I11
tp457
F0.4152171473459773
s(g10
I9
tp458
F0.9856741696283616
s(g8
I2
tp459
F0.3896869038267316
s(g10
I0
tp460
F0.9349523934886572
s(g10
I13
tp461
F0.8753674696151986
s(g8
I14
tp462
F0.3712265738974306
s(g10
I4
tp463
F0.5600675705322256
s(g8
I10
tp464
F0.39754236337111465
s(g10
I8
tp465
F0.5936553902856384
s(g8
I5
tp466
F0.43137694983728064
ssb.