ccopy_reg
_reconstructor
p0
(cNaiveBayes
NaiveBayes
p1
c__builtin__
object
p2
Ntp3
Rp4
(dp5
S'all_classes'
p6
(lp7
S'1'
p8
ag8
ag8
aS'0'
p9
ag9
ag8
ag8
ag9
ag8
ag9
ag8
ag9
ag9
ag8
ag8
ag8
ag8
ag8
ag8
ag8
ag9
ag8
ag8
ag8
ag8
ag8
ag9
ag8
ag9
ag8
ag8
ag8
ag8
ag8
ag8
ag9
ag9
ag9
ag9
ag9
ag9
ag9
ag9
ag9
ag9
ag9
ag9
ag9
ag8
ag8
ag9
ag9
ag8
ag8
ag8
ag8
ag9
ag8
ag9
ag8
ag8
ag9
ag8
ag9
ag8
ag8
ag9
ag9
ag9
ag8
ag8
ag8
ag8
ag9
ag8
ag9
ag9
ag9
ag9
ag9
ag9
ag9
ag9
ag9
ag9
ag9
ag9
ag9
ag8
ag8
ag8
ag9
ag8
ag9
ag8
ag8
ag9
ag8
ag8
ag9
ag8
ag8
ag8
ag8
ag8
ag8
ag8
ag9
ag8
ag8
ag9
ag9
ag9
ag9
ag9
ag9
ag9
ag9
ag9
ag9
ag9
ag9
asS'num_instances'
p10
I122
sS'prior'
p11
(dp12
g8
F0.4918032786885246
sg9
F0.5081967213114754
ssS'distinct_classes'
p13
(dp14
g8
I60
sg9
I62
ssS'mean_for_attribute'
p15
(dp16
(g9
I2
tp17
F1.4838709677419355
s(g8
I5
tp18
F1.5666666666666667
s(g8
I4
tp19
F1.9333333333333333
s(g9
I0
tp20
F1.9193548387096775
s(g9
I1
tp21
F2.403225806451613
s(g8
I2
tp22
F1.45
s(g8
I1
tp23
F1.6166666666666667
s(g8
I0
tp24
F1.85
s(g9
I3
tp25
F2.0483870967741935
s(g9
I5
tp26
F1.467741935483871
s(g8
I3
tp27
F2.0166666666666666
s(g9
I4
tp28
F3.0
ssS'var_for_attribute'
p29
(dp30
(g9
I2
tp31
F0.2497398543184182
s(g8
I5
tp32
F0.24555555555555533
s(g8
I4
tp33
F0.6955555555555559
s(g9
I0
tp34
F0.6225286160249748
s(g9
I1
tp35
F0.6599895941727368
s(g8
I2
tp36
F0.24750000000000016
s(g8
I1
tp37
F0.33638888888888896
s(g8
I0
tp38
F0.6941666666666664
s(g9
I3
tp39
F0.6589490114464096
s(g9
I5
tp40
F0.24895941727367304
s(g8
I3
tp41
F0.7163888888888886
s(g9
I4
tp42
F1.2903225806451613
ssb.